(dp0
S'colorhex'
p1
(dp2
S'rname'
p3
S'`colorHex`'
p4
sS'sortable'
p5
I3
sS'raw_rname'
p6
S'colorHex'
p7
sS'notnull'
p8
I00
sS'length'
p9
I512
sS'sql'
p10
S'VARCHAR(512) UNIQUE'
p11
sS'unique'
p12
S'True'
p13
sS'type'
p14
S'string'
p15
ssS'id'
p16
(dp17
g3
S'`id`'
p18
sg5
I1
sg6
S'id'
p19
sg8
I00
sg9
I512
sg10
S'INT AUTO_INCREMENT NOT NULL'
p20
sg12
I00
sg14
g19
ssS'name'
p21
(dp22
g3
S'`name`'
p23
sg5
I2
sg6
S'name'
p24
sg8
I00
sg9
I512
sg10
S'VARCHAR(512) UNIQUE'
p25
sg12
g13
sg14
g15
ss.