(dp1
S'output'
p2
S"<class 'gluon.contrib.pymysql.err.InternalError'> (1071, u'Specified key was too long; max key length is 767 bytes')"
p3
sS'layer'
p4
S'/Users/Ran/PycharmProjects/untitled/web2py/applications/shotsapp/controllers/shots.py'
p5
sS'code'
p6
S'<code object <module> at 0x105da3130, file "/Users/Ran/PycharmProjects/untitled/web2py/applications/shotsapp/controllers/shots.py", line 4>'
p7
sS'snapshot'
p8
(dp9
S'exception'
p10
(dp11
S'__module__'
p12
S"'gluon.contrib.pymysql.err'"
p13
sS'__getslice__'
p14
S"<method-wrapper '__getslice__' of InternalError object>"
p15
sS'__str__'
p16
S"<method-wrapper '__str__' of InternalError object>"
p17
sS'__reduce__'
p18
S'<built-in method __reduce__ of InternalError object>'
p19
sS'__dict__'
p20
S'{}'
p21
sS'__sizeof__'
p22
S'<built-in method __sizeof__ of InternalError object>'
p23
sS'__weakref__'
p24
S'None'
p25
sS'message'
p26
S"''"
p27
sS'__init__'
p28
S"<method-wrapper '__init__' of InternalError object>"
p29
sS'__setattr__'
p30
S"<method-wrapper '__setattr__' of InternalError object>"
p31
sS'__reduce_ex__'
p32
S'<built-in method __reduce_ex__ of InternalError object>'
p33
sS'__new__'
p34
S'<built-in method __new__ of type object>'
p35
sS'__format__'
p36
S'<built-in method __format__ of InternalError object>'
p37
sS'__class__'
p38
S"<class 'gluon.contrib.pymysql.err.InternalError'>"
p39
sS'__doc__'
p40
S"'Exception raised when the database encounters an...anymore, the transaction is\\n    out of sync, etc.'"
p41
sS'__getitem__'
p42
S"<method-wrapper '__getitem__' of InternalError object>"
p43
sS'__setstate__'
p44
S'<built-in method __setstate__ of InternalError object>'
p45
sS'__getattribute__'
p46
S"<method-wrapper '__getattribute__' of InternalError object>"
p47
sS'args'
p48
S"(1071, u'Specified key was too long; max key length is 767 bytes')"
p49
sS'__subclasshook__'
p50
S'<built-in method __subclasshook__ of type object>'
p51
sS'__unicode__'
p52
S'<built-in method __unicode__ of InternalError object>'
p53
sS'__delattr__'
p54
S"<method-wrapper '__delattr__' of InternalError object>"
p55
sS'__repr__'
p56
S"<method-wrapper '__repr__' of InternalError object>"
p57
sS'__hash__'
p58
S"<method-wrapper '__hash__' of InternalError object>"
p59
ssS'evalue'
p60
S"(1071, u'Specified key was too long; max key length is 767 bytes')"
p61
sS'request'
p62
cgluon.html
XML_unpickle
p63
(S'seX\x00\x00<div><table><tr><td style="font-weight:bold;vertical-align:top;">ajax</td><td style="vertical-align:top;">:</td><td><div>False</div></td></tr><tr><td style="font-weight:bold;vertical-align:top;">application</td><td style="vertical-align:top;">:</td><td><div>shotsapp</div></td></tr><tr><td style="font-weight:bold;vertical-align:top;">args</td><td style="vertical-align:top;">:</td><td><div><table></table></div></td></tr><tr><td style="font-weight:bold;vertical-align:top;">cid</td><td style="vertical-align:top;">:</td><td><div>None</div></td></tr><tr><td style="font-weight:bold;vertical-align:top;">client</td><td style="vertical-align:top;">:</td><td><div>127.0.0.1</div></td></tr><tr><td style="font-weight:bold;vertical-align:top;">controller</td><td style="vertical-align:top;">:</td><td><div>shots</div></td></tr><tr><td style="font-weight:bold;vertical-align:top;">cookies</td><td style="vertical-align:top;">:</td><td><div><table><tr><td style="font-weight:bold;vertical-align:top;">session_id_admin</td><td style="vertical-align:top;">:</td><td><div>127.0.0.1-0a55f5a4-4482-4a18-9d29-404c63e1428d<table><tr><td style="font-weight:bold;vertical-align:top;">comment</td><td style="vertical-align:top;">:</td><td><div></div></td></tr><tr><td style="font-weight:bold;vertical-align:top;">domain</td><td style="vertical-align:top;">:</td><td><div></div></td></tr><tr><td style="font-weight:bold;vertical-align:top;">expires</td><td style="vertical-align:top;">:</td><td><div></div></td></tr><tr><td style="font-weight:bold;vertical-align:top;">httponly</td><td style="vertical-align:top;">:</td><td><div></div></td></tr><tr><td style="font-weight:bold;vertical-align:top;">max-age</td><td style="vertical-align:top;">:</td><td><div></div></td></tr><tr><td style="font-weight:bold;vertical-align:top;">path</td><td style="vertical-align:top;">:</td><td><div></div></td></tr><tr><td style="font-weight:bold;vertical-align:top;">samesite</td><td style="vertical-align:top;">:</td><td><div></div></td></tr><tr><td style="font-weight:bold;vertical-align:top;">secure</td><td style="vertical-align:top;">:</td><td><div></div></td></tr><tr><td style="font-weight:bold;vertical-align:top;">version</td><td style="vertical-align:top;">:</td><td><div></div></td></tr></table></div></td></tr></table></div></td></tr><tr><td style="font-weight:bold;vertical-align:top;">env</td><td style="vertical-align:top;">:</td><td><div><table><tr><td style="font-weight:bold;vertical-align:top;">HTTP_ACCEPT</td><td style="vertical-align:top;">:</td><td><div>text/html,application/xhtml+xml,application/xml;q=0.9,image/webp,image/apng,*/*;q=0.8,application/signed-exchange;v=b3</div></td></tr><tr><td style="font-weight:bold;vertical-align:top;">HTTP_ACCEPT_ENCODING</td><td style="vertical-align:top;">:</td><td><div>gzip, deflate, br</div></td></tr><tr><td style="font-weight:bold;vertical-align:top;">HTTP_ACCEPT_LANGUAGE</td><td style="vertical-align:top;">:</td><td><div>en-US,en;q=0.9,he;q=0.8</div></td></tr><tr><td style="font-weight:bold;vertical-align:top;">HTTP_CACHE_CONTROL</td><td style="vertical-align:top;">:</td><td><div>no-cache</div></td></tr><tr><td style="font-weight:bold;vertical-align:top;">HTTP_CONNECTION</td><td style="vertical-align:top;">:</td><td><div>keep-alive</div></td></tr><tr><td style="font-weight:bold;vertical-align:top;">HTTP_COOKIE</td><td style="vertical-align:top;">:</td><td><div>_ga=GA1.1.944207612.1545615973; session_id_admin=127.0.0.1-0a55f5a4-4482-4a18-9d29-404c63e1428d</div></td></tr><tr><td style="font-weight:bold;vertical-align:top;">HTTP_HOST</td><td style="vertical-align:top;">:</td><td><div>localhost:8000</div></td></tr><tr><td style="font-weight:bold;vertical-align:top;">HTTP_PRAGMA</td><td style="vertical-align:top;">:</td><td><div>no-cache</div></td></tr><tr><td style="font-weight:bold;vertical-align:top;">HTTP_SEC_FETCH_MODE</td><td style="vertical-align:top;">:</td><td><div>navigate</div></td></tr><tr><td style="font-weight:bold;vertical-align:top;">HTTP_SEC_FETCH_SITE</td><td style="vertical-align:top;">:</td><td><div>none</div></td></tr><tr><td style="font-weight:bold;vertical-align:top;">HTTP_SEC_FETCH_USER</td><td style="vertical-align:top;">:</td><td><div>?1</div></td></tr><tr><td style="font-weight:bold;vertical-align:top;">HTTP_UPGRADE_INSECURE_REQUESTS</td><td style="vertical-align:top;">:</td><td><div>1</div></td></tr><tr><td style="font-weight:bold;vertical-align:top;">HTTP_USER_AGENT</td><td style="vertical-align:top;">:</td><td><div>Mozilla/5.0 (Macintosh; Intel Mac OS X 10_14_0) AppleWebKit/537.36 (KHTML, like Gecko) Chrome/76.0.3809.100 Safari/537.36</div></td></tr><tr><td style="font-weight:bold;vertical-align:top;">PATH_INFO</td><td style="vertical-align:top;">:</td><td><div>/shotsapp/shots/status</div></td></tr><tr><td style="font-weight:bold;vertical-align:top;">QUERY_STRING</td><td style="vertical-align:top;">:</td><td><div></div></td></tr><tr><td style="font-weight:bold;vertical-align:top;">REMOTE_ADDR</td><td style="vertical-align:top;">:</td><td><div>127.0.0.1</div></td></tr><tr><td style="font-weight:bold;vertical-align:top;">REMOTE_PORT</td><td style="vertical-align:top;">:</td><td><div>49921</div></td></tr><tr><td style="font-weight:bold;vertical-align:top;">REQUEST_METHOD</td><td style="vertical-align:top;">:</td><td><div>GET</div></td></tr><tr><td style="font-weight:bold;vertical-align:top;">SCRIPT_NAME</td><td style="vertical-align:top;">:</td><td><div></div></td></tr><tr><td style="font-weight:bold;vertical-align:top;">SERVER_NAME</td><td style="vertical-align:top;">:</td><td><div>MacBook-Pro.local</div></td></tr><tr><td style="font-weight:bold;vertical-align:top;">SERVER_PORT</td><td style="vertical-align:top;">:</td><td><div>8000</div></td></tr><tr><td style="font-weight:bold;vertical-align:top;">SERVER_PROTOCOL</td><td style="vertical-align:top;">:</td><td><div>HTTP/1.1</div></td></tr><tr><td style="font-weight:bold;vertical-align:top;">SERVER_SOFTWARE</td><td style="vertical-align:top;">:</td><td><div>Rocket 1.2.6</div></td></tr><tr><td style="font-weight:bold;vertical-align:top;">app_folders</td><td style="vertical-align:top;">:</td><td><div>set([&#x27;/Users/Ran/PycharmProjects/untitled/web2py/applications/shotsapp&#x27;, &#x27;/Users/Ran/PycharmProjects/untitled/web2py/applications/admin&#x27;, &#x27;/Users/Ran/PycharmProjects/untitled/web2py/applications/welcome&#x27;])</div></td></tr><tr><td style="font-weight:bold;vertical-align:top;">applications_parent</td><td style="vertical-align:top;">:</td><td><div>/Users/Ran/PycharmProjects/untitled/web2py</div></td></tr><tr><td style="font-weight:bold;vertical-align:top;">cmd_args</td><td style="vertical-align:top;">:</td><td><div><table></table></div></td></tr><tr><td style="font-weight:bold;vertical-align:top;">cmd_options</td><td style="vertical-align:top;">:</td><td><div>&lt;Values at 0x102624830: {&#x27;verbose&#x27;: False, &#x27;ip&#x27;: &#x27;127.0.0.1&#x27;, &#x27;debuglevel&#x27;: 30, &#x27;with_scheduler&#x27;: False, &#x27;shutdown_timeout&#x27;: 5, &#x27;taskbar&#x27;: False, &#x27;with_coverage&#x27;: False, &#x27;pid_filename&#x27;: &#x27;httpserver.pid&#x27;, &#x27;maxthreads&#x27;: None, &#x27;softcron&#x27;: False, &#x27;server_name&#x27;: &#x27;MacBook-Pro.local&#x27;, &#x27;bpython&#x27;: False, &#x27;nogui&#x27;: False, &#x27;port&#x27;: 8000, &#x27;print_errors&#x27;: False, &#x27;extcron&#x27;: False, &#x27;runcron&#x27;: False, &#x27;run_system_tests&#x27;: False, &#x27;test&#x27;: None, &#x27;folder&#x27;: &#x27;/Users/Ran/PycharmProjects/untitled/web2py&#x27;, &#x27;config&#x27;: &#x27;&#x27;, &#x27;minthreads&#x27;: None, &#x27;shell&#x27;: None, &#x27;run&#x27;: &#x27;&#x27;, &#x27;log_filename&#x27;: &#x27;httpserver.log&#x27;, &#x27;profiler_dir&#x27;: None, &#x27;args&#x27;: [], &#x27;socket_timeout&#x27;: 5, &#x27;ssl_ca_certificate&#x27;: None, &#x27;scheduler&#x27;: None, &#x27;interfaces&#x27;: None, &#x27;ssl_private_key&#x27;: &#x27;&#x27;, &#x27;gae&#x27;: None, &#x27;password&#x27;: &#x27;******&#x27;, &#x27;request_queue_size&#x27;: 5, &#x27;ssl_certificate&#x27;: &#x27;&#x27;, &#x27;cronjob&#x27;: False, &#x27;numthreads&#x27;: None, &#x27;quiet&#x27;: False, &#x27;import_models&#x27;: False, &#x27;timeout&#x27;: 10, &#x27;plain&#x27;: False, &#x27;nobanner&#x27;: False}&gt;</div></td></tr><tr><td style="font-weight:bold;vertical-align:top;">db_sessions</td><td style="vertical-align:top;">:</td><td><div>set([])</div></td></tr><tr><td style="font-weight:bold;vertical-align:top;">debugging</td><td style="vertical-align:top;">:</td><td><div>False</div></td></tr><tr><td style="font-weight:bold;vertical-align:top;">gluon_parent</td><td style="vertical-align:top;">:</td><td><div>/Users/Ran/PycharmProjects/untitled/web2py</div></td></tr><tr><td style="font-weight:bold;vertical-align:top;">http_accept</td><td style="vertical-align:top;">:</td><td><div>text/html,application/xhtml+xml,application/xml;q=0.9,image/webp,image/apng,*/*;q=0.8,application/signed-exchange;v=b3</div></td></tr><tr><td style="font-weight:bold;vertical-align:top;">http_accept_encoding</td><td style="vertical-align:top;">:</td><td><div>gzip, deflate, br</div></td></tr><tr><td style="font-weight:bold;vertical-align:top;">http_accept_language</td><td style="vertical-align:top;">:</td><td><div>en-US,en;q=0.9,he;q=0.8</div></td></tr><tr><td style="font-weight:bold;vertical-align:top;">http_cache_control</td><td style="vertical-align:top;">:</td><td><div>no-cache</div></td></tr><tr><td style="font-weight:bold;vertical-align:top;">http_connection</td><td style="vertical-align:top;">:</td><td><div>keep-alive</div></td></tr><tr><td style="font-weight:bold;vertical-align:top;">http_cookie</td><td style="vertical-align:top;">:</td><td><div>_ga=GA1.1.944207612.1545615973; session_id_admin=127.0.0.1-0a55f5a4-4482-4a18-9d29-404c63e1428d</div></td></tr><tr><td style="font-weight:bold;vertical-align:top;">http_host</td><td style="vertical-align:top;">:</td><td><div>localhost:8000</div></td></tr><tr><td style="font-weight:bold;vertical-align:top;">http_pragma</td><td style="vertical-align:top;">:</td><td><div>no-cache</div></td></tr><tr><td style="font-weight:bold;vertical-align:top;">http_sec_fetch_mode</td><td style="vertical-align:top;">:</td><td><div>navigate</div></td></tr><tr><td style="font-weight:bold;vertical-align:top;">http_sec_fetch_site</td><td style="vertical-align:top;">:</td><td><div>none</div></td></tr><tr><td style="font-weight:bold;vertical-align:top;">http_sec_fetch_user</td><td style="vertical-align:top;">:</td><td><div>?1</div></td></tr><tr><td style="font-weight:bold;vertical-align:top;">http_upgrade_insecure_requests</td><td style="vertical-align:top;">:</td><td><div>1</div></td></tr><tr><td style="font-weight:bold;vertical-align:top;">http_user_agent</td><td style="vertical-align:top;">:</td><td><div>Mozilla/5.0 (Macintosh; Intel Mac OS X 10_14_0) AppleWebKit/537.36 (KHTML, like Gecko) Chrome/76.0.3809.100 Safari/537.36</div></td></tr><tr><td style="font-weight:bold;vertical-align:top;">is_jython</td><td style="vertical-align:top;">:</td><td><div>False</div></td></tr><tr><td style="font-weight:bold;vertical-align:top;">is_py2</td><td style="vertical-align:top;">:</td><td><div>True</div></td></tr><tr><td style="font-weight:bold;vertical-align:top;">is_pypy</td><td style="vertical-align:top;">:</td><td><div>False</div></td></tr><tr><td style="font-weight:bold;vertical-align:top;">is_source</td><td style="vertical-align:top;">:</td><td><div>True</div></td></tr><tr><td style="font-weight:bold;vertical-align:top;">local_hosts</td><td style="vertical-align:top;">:</td><td><div><table><tr><td><div>MacBook-Pro.local</div></td></tr><tr><td><div>::1</div></td></tr><tr><td><div>::ffff:127.0.0.1</div></td></tr><tr><td><div>127.0.0.1</div></td></tr></table></div></td></tr><tr><td style="font-weight:bold;vertical-align:top;">path_info</td><td style="vertical-align:top;">:</td><td><div>/shotsapp/shots/status</div></td></tr><tr><td style="font-weight:bold;vertical-align:top;">query_string</td><td style="vertical-align:top;">:</td><td><div></div></td></tr><tr><td style="font-weight:bold;vertical-align:top;">remote_addr</td><td style="vertical-align:top;">:</td><td><div>127.0.0.1</div></td></tr><tr><td style="font-weight:bold;vertical-align:top;">remote_port</td><td style="vertical-align:top;">:</td><td><div>49921</div></td></tr><tr><td style="font-weight:bold;vertical-align:top;">request_method</td><td style="vertical-align:top;">:</td><td><div>GET</div></td></tr><tr><td style="font-weight:bold;vertical-align:top;">request_uri</td><td style="vertical-align:top;">:</td><td><div>/shotsapp/shots/status</div></td></tr><tr><td style="font-weight:bold;vertical-align:top;">script_name</td><td style="vertical-align:top;">:</td><td><div></div></td></tr><tr><td style="font-weight:bold;vertical-align:top;">server_name</td><td style="vertical-align:top;">:</td><td><div>MacBook-Pro.local</div></td></tr><tr><td style="font-weight:bold;vertical-align:top;">server_port</td><td style="vertical-align:top;">:</td><td><div>8000</div></td></tr><tr><td style="font-weight:bold;vertical-align:top;">server_protocol</td><td style="vertical-align:top;">:</td><td><div>HTTP/1.1</div></td></tr><tr><td style="font-weight:bold;vertical-align:top;">server_software</td><td style="vertical-align:top;">:</td><td><div>Rocket 1.2.6</div></td></tr><tr><td style="font-weight:bold;vertical-align:top;">web2py_path</td><td style="vertical-align:top;">:</td><td><div>/Users/Ran/PycharmProjects/untitled/web2py</div></td></tr><tr><td style="font-weight:bold;vertical-align:top;">web2py_version</td><td style="vertical-align:top;">:</td><td><div>2.18.5-stable+timestamp.2019.04.08.04.22.03</div></td></tr><tr><td style="font-weight:bold;vertical-align:top;">wsgi.errors</td><td style="vertical-align:top;">:</td><td><div>&lt;open file &#x27;&lt;stderr&gt;&#x27;, mode &#x27;w&#x27; at 0x10046d1e0&gt;</div></td></tr><tr><td style="font-weight:bold;vertical-align:top;">wsgi.file_wrapper</td><td style="vertical-align:top;">:</td><td><div>&lt;class wsgiref.util.FileWrapper at 0x1015bdce8&gt;</div></td></tr><tr><td style="font-weight:bold;vertical-align:top;">wsgi.input</td><td style="vertical-align:top;">:</td><td><div>&lt;socket._fileobject object at 0x107b85850&gt;</div></td></tr><tr><td style="font-weight:bold;vertical-align:top;">wsgi.multiprocess</td><td style="vertical-align:top;">:</td><td><div>False</div></td></tr><tr><td style="font-weight:bold;vertical-align:top;">wsgi.multithread</td><td style="vertical-align:top;">:</td><td><div>True</div></td></tr><tr><td style="font-weight:bold;vertical-align:top;">wsgi.run_once</td><td style="vertical-align:top;">:</td><td><div>False</div></td></tr><tr><td style="font-weight:bold;vertical-align:top;">wsgi.url_scheme</td><td style="vertical-align:top;">:</td><td><div>http</div></td></tr><tr><td style="font-weight:bold;vertical-align:top;">wsgi.version</td><td style="vertical-align:top;">:</td><td><div><table><tr><td><div>1</div></td></tr><tr><td><div>0</div></td></tr></table></div></td></tr><tr><td style="font-weight:bold;vertical-align:top;">wsgi_errors</td><td style="vertical-align:top;">:</td><td><div>&lt;open file &#x27;&lt;stderr&gt;&#x27;, mode &#x27;w&#x27; at 0x10046d1e0&gt;</div></td></tr><tr><td style="font-weight:bold;vertical-align:top;">wsgi_file_wrapper</td><td style="vertical-align:top;">:</td><td><div>&lt;class wsgiref.util.FileWrapper at 0x1015bdce8&gt;</div></td></tr><tr><td style="font-weight:bold;vertical-align:top;">wsgi_input</td><td style="vertical-align:top;">:</td><td><div>&lt;socket._fileobject object at 0x107b85850&gt;</div></td></tr><tr><td style="font-weight:bold;vertical-align:top;">wsgi_multiprocess</td><td style="vertical-align:top;">:</td><td><div>False</div></td></tr><tr><td style="font-weight:bold;vertical-align:top;">wsgi_multithread</td><td style="vertical-align:top;">:</td><td><div>True</div></td></tr><tr><td style="font-weight:bold;vertical-align:top;">wsgi_run_once</td><td style="vertical-align:top;">:</td><td><div>False</div></td></tr><tr><td style="font-weight:bold;vertical-align:top;">wsgi_url_scheme</td><td style="vertical-align:top;">:</td><td><div>http</div></td></tr><tr><td style="font-weight:bold;vertical-align:top;">wsgi_version</td><td style="vertical-align:top;">:</td><td><div><table><tr><td><div>1</div></td></tr><tr><td><div>0</div></td></tr></table></div></td></tr></table></div></td></tr><tr><td style="font-weight:bold;vertical-align:top;">extension</td><td style="vertical-align:top;">:</td><td><div>html</div></td></tr><tr><td style="font-weight:bold;vertical-align:top;">folder</td><td style="vertical-align:top;">:</td><td><div>/Users/Ran/PycharmProjects/untitled/web2py/applications/shotsapp</div></td></tr><tr><td style="font-weight:bold;vertical-align:top;">function</td><td style="vertical-align:top;">:</td><td><div>status</div></td></tr><tr><td style="font-weight:bold;vertical-align:top;">global_settings</td><td style="vertical-align:top;">:</td><td><div><table><tr><td style="font-weight:bold;vertical-align:top;">app_folders</td><td style="vertical-align:top;">:</td><td><div>set([&#x27;/Users/Ran/PycharmProjects/untitled/web2py/applications/shotsapp&#x27;, &#x27;/Users/Ran/PycharmProjects/untitled/web2py/applications/admin&#x27;, &#x27;/Users/Ran/PycharmProjects/untitled/web2py/applications/welcome&#x27;])</div></td></tr><tr><td style="font-weight:bold;vertical-align:top;">applications_parent</td><td style="vertical-align:top;">:</td><td><div>/Users/Ran/PycharmProjects/untitled/web2py</div></td></tr><tr><td style="font-weight:bold;vertical-align:top;">cmd_args</td><td style="vertical-align:top;">:</td><td><div><table></table></div></td></tr><tr><td style="font-weight:bold;vertical-align:top;">cmd_options</td><td style="vertical-align:top;">:</td><td><div>&lt;Values at 0x102624830: {&#x27;verbose&#x27;: False, &#x27;ip&#x27;: &#x27;127.0.0.1&#x27;, &#x27;debuglevel&#x27;: 30, &#x27;with_scheduler&#x27;: False, &#x27;shutdown_timeout&#x27;: 5, &#x27;taskbar&#x27;: False, &#x27;with_coverage&#x27;: False, &#x27;pid_filename&#x27;: &#x27;httpserver.pid&#x27;, &#x27;maxthreads&#x27;: None, &#x27;softcron&#x27;: False, &#x27;server_name&#x27;: &#x27;MacBook-Pro.local&#x27;, &#x27;bpython&#x27;: False, &#x27;nogui&#x27;: False, &#x27;port&#x27;: 8000, &#x27;print_errors&#x27;: False, &#x27;extcron&#x27;: False, &#x27;runcron&#x27;: False, &#x27;run_system_tests&#x27;: False, &#x27;test&#x27;: None, &#x27;folder&#x27;: &#x27;/Users/Ran/PycharmProjects/untitled/web2py&#x27;, &#x27;config&#x27;: &#x27;&#x27;, &#x27;minthreads&#x27;: None, &#x27;shell&#x27;: None, &#x27;run&#x27;: &#x27;&#x27;, &#x27;log_filename&#x27;: &#x27;httpserver.log&#x27;, &#x27;profiler_dir&#x27;: None, &#x27;args&#x27;: [], &#x27;socket_timeout&#x27;: 5, &#x27;ssl_ca_certificate&#x27;: None, &#x27;scheduler&#x27;: None, &#x27;interfaces&#x27;: None, &#x27;ssl_private_key&#x27;: &#x27;&#x27;, &#x27;gae&#x27;: None, &#x27;password&#x27;: &#x27;******&#x27;, &#x27;request_queue_size&#x27;: 5, &#x27;ssl_certificate&#x27;: &#x27;&#x27;, &#x27;cronjob&#x27;: False, &#x27;numthreads&#x27;: None, &#x27;quiet&#x27;: False, &#x27;import_models&#x27;: False, &#x27;timeout&#x27;: 10, &#x27;plain&#x27;: False, &#x27;nobanner&#x27;: False}&gt;</div></td></tr><tr><td style="font-weight:bold;vertical-align:top;">db_sessions</td><td style="vertical-align:top;">:</td><td><div>set([])</div></td></tr><tr><td style="font-weight:bold;vertical-align:top;">debugging</td><td style="vertical-align:top;">:</td><td><div>False</div></td></tr><tr><td style="font-weight:bold;vertical-align:top;">gluon_parent</td><td style="vertical-align:top;">:</td><td><div>/Users/Ran/PycharmProjects/untitled/web2py</div></td></tr><tr><td style="font-weight:bold;vertical-align:top;">is_jython</td><td style="vertical-align:top;">:</td><td><div>False</div></td></tr><tr><td style="font-weight:bold;vertical-align:top;">is_py2</td><td style="vertical-align:top;">:</td><td><div>True</div></td></tr><tr><td style="font-weight:bold;vertical-align:top;">is_pypy</td><td style="vertical-align:top;">:</td><td><div>False</div></td></tr><tr><td style="font-weight:bold;vertical-align:top;">is_source</td><td style="vertical-align:top;">:</td><td><div>True</div></td></tr><tr><td style="font-weight:bold;vertical-align:top;">local_hosts</td><td style="vertical-align:top;">:</td><td><div><table><tr><td><div>MacBook-Pro.local</div></td></tr><tr><td><div>::1</div></td></tr><tr><td><div>::ffff:127.0.0.1</div></td></tr><tr><td><div>127.0.0.1</div></td></tr></table></div></td></tr><tr><td style="font-weight:bold;vertical-align:top;">web2py_version</td><td style="vertical-align:top;">:</td><td><div>2.18.5-stable+timestamp.2019.04.08.04.22.03</div></td></tr></table></div></td></tr><tr><td style="font-weight:bold;vertical-align:top;">is_https</td><td style="vertical-align:top;">:</td><td><div>False</div></td></tr><tr><td style="font-weight:bold;vertical-align:top;">is_local</td><td style="vertical-align:top;">:</td><td><div>True</div></td></tr><tr><td style="font-weight:bold;vertical-align:top;">is_restful</td><td style="vertical-align:top;">:</td><td><div>False</div></td></tr><tr><td style="font-weight:bold;vertical-align:top;">is_scheduler</td><td style="vertical-align:top;">:</td><td><div>False</div></td></tr><tr><td style="font-weight:bold;vertical-align:top;">is_shell</td><td style="vertical-align:top;">:</td><td><div>False</div></td></tr><tr><td style="font-weight:bold;vertical-align:top;">method</td><td style="vertical-align:top;">:</td><td><div>GET</div></td></tr><tr><td style="font-weight:bold;vertical-align:top;">now</td><td style="vertical-align:top;">:</td><td><div>datetime.datetime(2019, 8, 22, 9, 39, 8, 292801)</div></td></tr><tr><td style="font-weight:bold;vertical-align:top;">raw_args</td><td style="vertical-align:top;">:</td><td><div></div></td></tr><tr><td style="font-weight:bold;vertical-align:top;">raw_extension</td><td style="vertical-align:top;">:</td><td><div>None</div></td></tr><tr><td style="font-weight:bold;vertical-align:top;">url</td><td style="vertical-align:top;">:</td><td><div>/shotsapp/shots/status</div></td></tr><tr><td style="font-weight:bold;vertical-align:top;">utcnow</td><td style="vertical-align:top;">:</td><td><div>datetime.datetime(2019, 8, 22, 6, 39, 8, 292809)</div></td></tr><tr><td style="font-weight:bold;vertical-align:top;">wsgi</td><td style="vertical-align:top;">:</td><td><div>&lt;gluon.main.LazyWSGI object at 0x107fa7c10&gt;</div></td></tr></table></div>'
tRp64
sS'frames'
p65
(lp66
(dp67
S'file'
p68
S'/Users/Ran/PycharmProjects/untitled/web2py/gluon/restricted.py'
p69
sS'dump'
p70
(dp71
S'environment'
p72
S"{'A': <class 'gluon.html.A'>, 'ANY_OF': <class 'pydal.validators.ANY_OF'>, 'ASSIGNJS': <function ASSIGNJS>, 'AppConfig': <function AppConfig>, 'Auth': <class 'gluon.tools.Auth'>, 'B': <class 'gluon.html.B'>, 'BEAUTIFY': <class 'gluon.html.BEAUTIFY'>, 'BODY': <class 'gluon.html.BODY'>, 'BR': <class 'gluon.html.BR'>, 'BUTTON': <class 'gluon.html.BUTTON'>, ...}"
p73
sS'ccode'
p74
S'<code object <module> at 0x105da3130, file "/Use...lications/shotsapp/controllers/shots.py", line 4>'
p75
ssS'lnum'
p76
I219
sS'lines'
p77
(dp78
I214
S'    if environment is None:'
p79
sI215
S'        environment = {}'
p80
sI216
S"    environment['__file__'] = layer"
p81
sI217
S"    environment['__name__'] = '__restricted__'"
p82
sI218
S'    try:'
p83
sI219
S'        exec(ccode, environment)'
p84
sI220
S'    except HTTP:'
p85
sI221
S'        raise'
p86
sI222
S'    except RestrictedError:'
p87
sI223
S'        # do not encapsulate (obfuscate) the original RestrictedError'
p88
ssS'call'
p89
S'(ccode=<code object <module> at 0x105da3130, file "/Use...lications/shotsapp/controllers/shots.py", line 4>, environment={\'A\': <class \'gluon.html.A\'>, \'ANY_OF\': <class \'pydal.validators.ANY_OF\'>, \'ASSIGNJS\': <function ASSIGNJS>, \'AppConfig\': <function AppConfig>, \'Auth\': <class \'gluon.tools.Auth\'>, \'B\': <class \'gluon.html.B\'>, \'BEAUTIFY\': <class \'gluon.html.BEAUTIFY\'>, \'BODY\': <class \'gluon.html.BODY\'>, \'BR\': <class \'gluon.html.BR\'>, \'BUTTON\': <class \'gluon.html.BUTTON\'>, ...}, layer=\'/Users/Ran/PycharmProjects/untitled/web2py/applications/shotsapp/controllers/shots.py\', scode=<code object <module> at 0x105da3130, file "/Use...lications/shotsapp/controllers/shots.py", line 4>)'
p90
sS'func'
p91
S'restricted'
p92
sa(dp93
g68
S'/Users/Ran/PycharmProjects/untitled/web2py/applications/shotsapp/controllers/shots.py'
p94
sg70
(dp95
sg76
I80
sg77
(dp96
I69
S'                                          description=request.post_vars.description)'
p97
sI70
S'            redirect(currPath)'
p98
sI71
S''
sI72
S''
sI73
S"    form['_style'] = ''"
p99
sI74
S"    for input in form.elements('input', _class='string'):"
p100
sI75
S"        input['_class'] = ''"
p101
sI76
S''
sI77
S"    response.view = '../views/default/status.html'"
p102
sI78
S'    return dict(message=form, shotList=XML(shotlist))'
p103
ssg89
S'()'
p104
sg91
S'<module>'
p105
sa(dp106
g68
S'/Users/Ran/PycharmProjects/untitled/web2py/gluon/globals.py'
p107
sg70
(dp108
S'self'
p109
S'undefined'
p110
sS'f'
S'<function status>'
p111
ssg76
I421
sg77
(dp112
I416
S"        self.flash = ''            # used by the default view layout"
p113
sI417
S'        self.meta = Storage()      # used by web2py_ajax.html'
p114
sI418
S'        self.menu = []             # used by the default view layout'
p115
sI419
S'        self.files = []            # used by web2py_ajax.html'
p116
sI420
S'        self._vars = None'
p117
sI421
S'        self._caller = lambda f: f()'
p118
sI422
S'        self._view_environment = None'
p119
sI423
S'        self._custom_commit = None'
p120
sI424
S'        self._custom_rollback = None'
p121
sI425
S"        self.generic_patterns = ['*']"
p122
ssg89
S'(f=<function status>)'
p123
sg91
S'<lambda>'
p124
sa(dp125
g68
S'/Users/Ran/PycharmProjects/untitled/web2py/applications/shotsapp/controllers/shots.py'
p126
sg70
(dp127
S'writeable'
p128
g110
sS'builtintype'
p129
S"<type 'type'>"
p130
sS'readable'
p131
g110
sS'label'
p132
g110
sS'global Field'
p133
S"<class 'pydal.objects.Field'>"
p134
sS'notnull'
p135
g110
ssg76
I25
sg77
(dp136
I20
S'    # statuses =  []'
p137
sI21
S'    # for row in db().select(db.statuses.ALL):'
p138
sI22
S'    #     statuses.append(row.name)'
p139
sI23
S''
sI24
S'    db.define_table(\'shotsTable\', Field(\'name\', type="string",label=\'Name\', required="True", unique="True", notnull="True"), Field('
p140
sI25
S'        \'modified\', type="date", writeable="False", readable="True"), Field(\'framesNum\', type="integer", label=\'Number of Frames\'), Field(\'modifier\', type="string", label=\'Modified By\'), Field(\'status\', notnull=\'True\'), Field(\'active\', type=\'boolean\'), Field(\'description\', type=\'text\'))'
p141
sI26
S"    db.shotsTable.status.requires = IS_IN_DB(db, 'statuses.name',zero=None)"
p142
sI27
S''
sI28
S'    # get all shots'
p143
sI29
S"    db.shotsTable.validate_and_insert(name='shot 08', modified='2019-4-4', framesNum=65, modifier='Ran', status='pis da', statusColor='kaki', active=True, description='who cates')"
p144
ssg89
S'()'
p145
sg91
S'status'
p146
sa(dp147
g68
S'/Users/Ran/PycharmProjects/untitled/web2py/gluon/packages/dal/pydal/base.py'
p148
sg70
(dp149
S'fields'
p150
S'(<pydal.objects.Field object>, <pydal.objects.Field object>, <pydal.objects.Field object>, <pydal.objects.Field object>, <pydal.objects.Field object>, <pydal.objects.Field object>, <pydal.objects.Field object>)'
p151
sS'self'
p152
S'<DAL uri="mysql://******@u615qyjzybll9lrm.chr7pe...-west-1.rds.amazonaws.com:3306/sihk179m6dbi86xk">'
p153
sS'tablename'
p154
S"'shotsTable'"
p155
sS'kwargs'
p156
g21
sS'table'
p157
g110
sS'self.lazy_define_table'
p158
S'<bound method DAL.lazy_define_table of <DAL uri=...west-1.rds.amazonaws.com:3306/sihk179m6dbi86xk">>'
p159
ssg76
I592
sg77
(dp160
I587
S'        if self._lazy_tables:'
p161
sI588
S'            if tablename not in self._LAZY_TABLES or redefine:'
p162
sI589
S'                self._LAZY_TABLES[tablename] = (tablename, fields, kwargs)'
p163
sI590
S'            table = None'
p164
sI591
S'        else:'
p165
sI592
S'            table = self.lazy_define_table(tablename, *fields, **kwargs)'
p166
sI593
S'        if tablename not in self.tables:'
p167
sI594
S'            self.tables.append(tablename)'
p168
sI595
S'        return table'
p169
sI596
S''
ssg89
S'(self=<DAL uri="mysql://******@u615qyjzybll9lrm.chr7pe...-west-1.rds.amazonaws.com:3306/sihk179m6dbi86xk">, tablename=\'shotsTable\', *fields=(<pydal.objects.Field object>, <pydal.objects.Field object>, <pydal.objects.Field object>, <pydal.objects.Field object>, <pydal.objects.Field object>, <pydal.objects.Field object>, <pydal.objects.Field object>), **kwargs={})'
p170
sg91
S'define_table'
p171
sa(dp172
g68
S'/Users/Ran/PycharmProjects/untitled/web2py/gluon/packages/dal/pydal/base.py'
p173
sg70
(dp174
S'polymodel'
p175
S'None'
p176
ssg76
I626
sg77
(dp177
I621
S'            try:'
p178
sI622
S'                GLOBAL_LOCKER.acquire()'
p179
sI623
S'                self._adapter.create_table('
p180
sI624
S'                    table, migrate=migrate,'
p181
sI625
S'                    fake_migrate=fake_migrate,'
p182
sI626
S'                    polymodel=polymodel)'
p183
sI627
S'            finally:'
p184
sI628
S'                GLOBAL_LOCKER.release()'
p185
sI629
S'        else:'
p186
sI630
S'            table._dbt = None'
p187
ssg89
S'(self=<DAL uri="mysql://******@u615qyjzybll9lrm.chr7pe...-west-1.rds.amazonaws.com:3306/sihk179m6dbi86xk">, tablename=\'shotsTable\', *fields=(<pydal.objects.Field object>, <pydal.objects.Field object>, <pydal.objects.Field object>, <pydal.objects.Field object>, <pydal.objects.Field object>, <pydal.objects.Field object>, <pydal.objects.Field object>), **kwargs={})'
p188
sg91
S'lazy_define_table'
p189
sa(dp190
g68
S'/Users/Ran/PycharmProjects/untitled/web2py/gluon/packages/dal/pydal/adapters/base.py'
p191
sg70
(dp192
S'self'
p193
S'<pydal.adapters.mysql.MySQL object>'
p194
sS'args'
p195
S'(<Table shotsTable (id, name, modified, framesNum, modifier, status, active, description)>,)'
p196
sS'self.migrator'
p197
S'<pydal.migrator.Migrator object>'
p198
sS'self.migrator.create_table'
p199
S'<bound method Migrator.create_table of <pydal.migrator.Migrator object>>'
p200
sS'kwargs'
p201
S"{'fake_migrate': False, 'migrate': True, 'polymodel': None}"
p202
ssg76
I798
sg77
(dp203
I800
S'    def _drop_table_cleanup(self, table):'
p204
sI801
S'        super(SQLAdapter, self)._drop_table_cleanup(table)'
p205
sI802
S'        if table._dbt:'
p206
sI793
S''
sI794
S'    def bulk_insert(self, table, items):'
p207
sI795
S'        return [self.insert(table, item) for item in items]'
p208
sI796
S''
sI797
S'    def create_table(self, *args, **kwargs):'
p209
sI798
S'        return self.migrator.create_table(*args, **kwargs)'
p210
sI799
S''
ssg89
S"(self=<pydal.adapters.mysql.MySQL object>, *args=(<Table shotsTable (id, name, modified, framesNum, modifier, status, active, description)>,), **kwargs={'fake_migrate': False, 'migrate': True, 'polymodel': None})"
p211
sg91
S'create_table'
p212
sa(dp213
g68
S'/Users/Ran/PycharmProjects/untitled/web2py/gluon/packages/dal/pydal/migrator.py'
p214
sg70
(dp215
S'query'
p216
S"'CREATE TABLE `shotsTable`(\\n    `id` INT AUTO_INC...RY KEY (`id`)\\n) ENGINE=InnoDB CHARACTER SET utf8;'"
p217
sS'self'
p218
S'<pydal.migrator.Migrator object>'
p219
sS'self.adapter'
p220
S'<pydal.adapters.mysql.MySQL object>'
p221
sS'self.adapter.create_sequence_and_triggers'
p222
S'<bound method MySQL.create_sequence_and_triggers of <pydal.adapters.mysql.MySQL object>>'
p223
sS'table'
p224
S'<Table shotsTable (id, name, modified, framesNum, modifier, status, active, description)>'
p225
ssg76
I281
sg77
(dp226
I276
S'            if table._dbt:'
p227
sI277
S"                self.log('timestamp: %s\\n%s\\n'"
p228
sI278
S'                         % (datetime.datetime.today().isoformat(),'
p229
sI279
S'                            query), table)'
p230
sI280
S'            if not fake_migrate:'
p231
sI281
S'                self.adapter.create_sequence_and_triggers(query, table)'
p232
sI282
S'                db.commit()'
p233
sI283
S'                # Postgres geom fields are added now,'
p234
sI284
S'                # after the table has been created'
p235
sI285
S'                for query in postcreation_fields:'
p236
ssg89
S'(self=<pydal.migrator.Migrator object>, table=<Table shotsTable (id, name, modified, framesNum, modifier, status, active, description)>, migrate=True, fake_migrate=False, polymodel=None)'
p237
sg91
g212
sa(dp238
g68
S'/Users/Ran/PycharmProjects/untitled/web2py/gluon/packages/dal/pydal/adapters/base.py'
p239
sg70
(dp240
S'query'
p241
S"'CREATE TABLE `shotsTable`(\\n    `id` INT AUTO_INC...RY KEY (`id`)\\n) ENGINE=InnoDB CHARACTER SET utf8;'"
p242
sS'self'
p243
S'<pydal.adapters.mysql.MySQL object>'
p244
sS'self.execute'
p245
S'<bound method MySQL.wrap of <pydal.adapters.mysql.MySQL object>>'
p246
ssg76
I881
sg77
(dp247
I876
S'    @with_connection'
p248
sI877
S'    def rollback_prepared(self, key):'
p249
sI878
S'        self.connection.rollback()'
p250
sI879
S''
sI880
S'    def create_sequence_and_triggers(self, query, table, **args):'
p251
sI881
S'        self.execute(query)'
p252
sI882
S''
sI883
S'    def sqlsafe_table(self, tablename, original_tablename=None):'
p253
sI884
S'        if original_tablename is not None:'
p254
sI885
S'            return self.dialect.alias(original_tablename, tablename)'
p255
ssg89
S"(self=<pydal.adapters.mysql.MySQL object>, query='CREATE TABLE `shotsTable`(\\n    `id` INT AUTO_INC...RY KEY (`id`)\\n) ENGINE=InnoDB CHARACTER SET utf8;', table=<Table shotsTable (id, name, modified, framesNum, modifier, status, active, description)>, **args={})"
p256
sg91
S'create_sequence_and_triggers'
p257
sa(dp258
g68
S'/Users/Ran/PycharmProjects/untitled/web2py/gluon/packages/dal/pydal/adapters/__init__.py'
p259
sg70
(dp260
S'kwargs'
p261
g21
sS'args'
p262
S"(<pydal.adapters.mysql.MySQL object>, 'CREATE TABLE `shotsTable`(\\n    `id` INT AUTO_INC...RY KEY (`id`)\\n) ENGINE=InnoDB CHARACTER SET utf8;')"
p263
sS'f'
S'<function execute>'
p264
ssg76
I67
sg77
(dp265
I64
S'            if len(args) > 1:'
p266
sI65
S'                raise ValueError(args[1])'
p267
sI66
S"            raise RuntimeError('no connection available')"
p268
sI67
S'        return f(*args, **kwargs)'
p269
sI68
S'    return wrap'
p270
sI69
S''
sI70
S''
sI71
S'from .base import SQLAdapter, NoSQLAdapter'
p271
sI62
S'    def wrap(*args, **kwargs):'
p272
sI63
S'        if not args[0].connection:'
p273
ssg89
S"(*args=(<pydal.adapters.mysql.MySQL object>, 'CREATE TABLE `shotsTable`(\\n    `id` INT AUTO_INC...RY KEY (`id`)\\n) ENGINE=InnoDB CHARACTER SET utf8;'), **kwargs={})"
p274
sg91
S'wrap'
p275
sa(dp276
g68
S'/Users/Ran/PycharmProjects/untitled/web2py/gluon/packages/dal/pydal/adapters/base.py'
p277
sg70
(dp278
S'rv'
p279
g110
sS'self'
p280
S'<pydal.adapters.mysql.MySQL object>'
p281
sS'args'
p282
S"('CREATE TABLE `shotsTable`(\\n    `id` INT AUTO_INC...RY KEY (`id`)\\n) ENGINE=InnoDB CHARACTER SET utf8;',)"
p283
sS'self.cursor'
p284
S'<gluon.contrib.pymysql.cursors.Cursor object>'
p285
sS'command'
p286
S"'CREATE TABLE `shotsTable`(\\n    `id` INT AUTO_INC...RY KEY (`id`)\\n) ENGINE=InnoDB CHARACTER SET utf8;'"
p287
sS'self.cursor.execute'
p288
S'<bound method Cursor.execute of <gluon.contrib.pymysql.cursors.Cursor object>>'
p289
sS'kwargs'
p290
g21
ssg76
I413
sg77
(dp291
I416
S'        return rv'
p292
sI417
S''
sI408
S'    def execute(self, *args, **kwargs):'
p293
sI409
S'        command = self.filter_sql_command(args[0])'
p294
sI410
S'        handlers = self._build_handlers_for_execution()'
p295
sI411
S'        for handler in handlers:'
p296
sI412
S'            handler.before_execute(command)'
p297
sI413
S'        rv = self.cursor.execute(command, *args[1:], **kwargs)'
p298
sI414
S'        for handler in handlers:'
p299
sI415
S'            handler.after_execute(command)'
p300
ssg89
S"(self=<pydal.adapters.mysql.MySQL object>, *args=('CREATE TABLE `shotsTable`(\\n    `id` INT AUTO_INC...RY KEY (`id`)\\n) ENGINE=InnoDB CHARACTER SET utf8;',), **kwargs={})"
p301
sg91
S'execute'
p302
sa(dp303
g68
S'/Users/Ran/PycharmProjects/untitled/web2py/gluon/contrib/pymysql/cursors.py'
p304
sg70
(dp305
S'query'
p306
S"'CREATE TABLE `shotsTable`(\\n    `id` INT AUTO_INC...RY KEY (`id`)\\n) ENGINE=InnoDB CHARACTER SET utf8;'"
p307
sS'self'
p308
S'<gluon.contrib.pymysql.cursors.Cursor object>'
p309
sS'result'
p310
g110
sS'self._query'
p311
S'<bound method Cursor._query of <gluon.contrib.pymysql.cursors.Cursor object>>'
p312
ssg76
I166
sg77
(dp313
I161
S'        while self.nextset():'
p314
sI162
S'            pass'
p315
sI163
S''
sI164
S'        query = self.mogrify(query, args)'
p316
sI165
S''
sI166
S'        result = self._query(query)'
p317
sI167
S'        self._executed = query'
p318
sI168
S'        return result'
p319
sI169
S''
sI170
S'    def executemany(self, query, args):'
p320
ssg89
S"(self=<gluon.contrib.pymysql.cursors.Cursor object>, query='CREATE TABLE `shotsTable`(\\n    `id` INT AUTO_INC...RY KEY (`id`)\\n) ENGINE=InnoDB CHARACTER SET utf8;', args=None)"
p321
sg91
g302
sa(dp322
g68
S'/Users/Ran/PycharmProjects/untitled/web2py/gluon/contrib/pymysql/cursors.py'
p323
sg70
(dp324
S'q'
S"'CREATE TABLE `shotsTable`(\\n    `id` INT AUTO_INC...RY KEY (`id`)\\n) ENGINE=InnoDB CHARACTER SET utf8;'"
p325
sS'conn.query'
p326
S'<bound method Connection.query of <gluon.contrib.pymysql.connections.Connection object>>'
p327
sS'conn'
p328
S'<gluon.contrib.pymysql.connections.Connection object>'
p329
ssg76
I322
sg77
(dp330
I320
S'        conn = self._get_db()'
p331
sI321
S'        self._last_executed = q'
p332
sI322
S'        conn.query(q)'
p333
sI323
S'        self._do_get_result()'
p334
sI324
S'        return self.rowcount'
p335
sI325
S''
sI326
S'    def _do_get_result(self):'
p336
sI317
S'        self.rownumber = r'
p337
sI318
S''
sI319
S'    def _query(self, q):'
p338
ssg89
S"(self=<gluon.contrib.pymysql.cursors.Cursor object>, q='CREATE TABLE `shotsTable`(\\n    `id` INT AUTO_INC...RY KEY (`id`)\\n) ENGINE=InnoDB CHARACTER SET utf8;')"
p339
sg91
S'_query'
p340
sa(dp341
g68
S'/Users/Ran/PycharmProjects/untitled/web2py/gluon/contrib/pymysql/connections.py'
p342
sg70
(dp343
S'self._read_query_result'
p344
S'<bound method Connection._read_query_result of <...n.contrib.pymysql.connections.Connection object>>'
p345
sS'self'
p346
S'<gluon.contrib.pymysql.connections.Connection object>'
p347
sS'unbuffered'
p348
S'False'
p349
sS'self._affected_rows'
p350
S'0'
ssg76
I835
sg77
(dp351
I832
S'            else:'
p352
sI833
S"                sql = sql.encode(self.encoding, 'surrogateescape')"
p353
sI834
S'        self._execute_command(COMMAND.COM_QUERY, sql)'
p354
sI835
S'        self._affected_rows = self._read_query_result(unbuffered=unbuffered)'
p355
sI836
S'        return self._affected_rows'
p356
sI837
S''
sI838
S'    def next_result(self, unbuffered=False):'
p357
sI839
S'        self._affected_rows = self._read_query_result(unbuffered=unbuffered)'
p358
sI830
S'            if PY2:'
p359
sI831
S'                sql = sql.encode(self.encoding)'
p360
ssg89
S"(self=<gluon.contrib.pymysql.connections.Connection object>, sql='CREATE TABLE `shotsTable`(\\n    `id` INT AUTO_INC...RY KEY (`id`)\\n) ENGINE=InnoDB CHARACTER SET utf8;', unbuffered=False)"
p361
sg91
S'query'
p362
sa(dp363
g68
S'/Users/Ran/PycharmProjects/untitled/web2py/gluon/contrib/pymysql/connections.py'
p364
sg70
(dp365
S'result.read'
p366
S'<bound method MySQLResult.read of <gluon.contrib.pymysql.connections.MySQLResult object>>'
p367
sS'result'
p368
S'<gluon.contrib.pymysql.connections.MySQLResult object>'
p369
ssg76
I1019
sg77
(dp370
I1014
S'                result.unbuffered_active = False'
p371
sI1015
S'                result.connection = None'
p372
sI1016
S'                raise'
p373
sI1017
S'        else:'
p374
sI1018
S'            result = MySQLResult(self)'
p375
sI1019
S'            result.read()'
p376
sI1020
S'        self._result = result'
p377
sI1021
S'        if result.server_status is not None:'
p378
sI1022
S'            self.server_status = result.server_status'
p379
sI1023
S'        return result.affected_rows'
p380
ssg89
S'(self=<gluon.contrib.pymysql.connections.Connection object>, unbuffered=False)'
p381
sg91
S'_read_query_result'
p382
sa(dp383
g68
S'/Users/Ran/PycharmProjects/untitled/web2py/gluon/contrib/pymysql/connections.py'
p384
sg70
(dp385
S'first_packet'
p386
g110
sS'self'
p387
S'<gluon.contrib.pymysql.connections.MySQLResult object>'
p388
sS'self.connection'
p389
S'None'
p390
sS'self.connection._read_packet'
p391
g110
ssg76
I1302
sg77
(dp392
I1297
S'        if self.unbuffered_active:'
p393
sI1298
S'            self._finish_unbuffered_query()'
p394
sI1299
S''
sI1300
S'    def read(self):'
p395
sI1301
S'        try:'
p396
sI1302
S'            first_packet = self.connection._read_packet()'
p397
sI1303
S''
sI1304
S'            if first_packet.is_ok_packet():'
p398
sI1305
S'                self._read_ok_packet(first_packet)'
p399
sI1306
S'            elif first_packet.is_load_local_packet():'
p400
ssg89
S'(self=<gluon.contrib.pymysql.connections.MySQLResult object>)'
p401
sg91
S'read'
p402
sa(dp403
g68
S'/Users/Ran/PycharmProjects/untitled/web2py/gluon/contrib/pymysql/connections.py'
p404
sg70
(dp405
S'packet'
p406
S'<gluon.contrib.pymysql.connections.MysqlPacket object>'
p407
sS'packet.check_error'
p408
S'<bound method MysqlPacket.check_error of <gluon.contrib.pymysql.connections.MysqlPacket object>>'
p409
ssg76
I981
sg77
(dp410
I976
S'                continue'
p411
sI977
S'            if bytes_to_read < MAX_PACKET_LEN:'
p412
sI978
S'                break'
p413
sI979
S''
sI980
S'        packet = packet_type(buff, self.encoding)'
p414
sI981
S'        packet.check_error()'
p415
sI982
S'        return packet'
p416
sI983
S''
sI984
S'    def _read_bytes(self, num_bytes):'
p417
sI985
S'        self._sock.settimeout(self._read_timeout)'
p418
ssg89
S"(self=<gluon.contrib.pymysql.connections.Connection object>, packet_type=<class 'gluon.contrib.pymysql.connections.MysqlPacket'>)"
p419
sg91
S'_read_packet'
p420
sa(dp421
g68
S'/Users/Ran/PycharmProjects/untitled/web2py/gluon/contrib/pymysql/connections.py'
p422
sg70
(dp423
S'self._data'
p424
S"'\\xff/\\x04#42000Specified key was too long; max key length is 767 bytes'"
p425
sS'self'
p426
S'<gluon.contrib.pymysql.connections.MysqlPacket object>'
p427
sS'global err'
p428
S"<module 'gluon.contrib.pymysql.err' from '/Users...s/untitled/web2py/gluon/contrib/pymysql/err.pyc'>"
p429
sS'err.raise_mysql_exception'
p430
S'<function raise_mysql_exception>'
p431
ssg76
I393
sg77
(dp432
I388
S'        if self.is_error_packet():'
p433
sI389
S'            self.rewind()'
p434
sI390
S'            self.advance(1)  # field_count == error (we already know that)'
p435
sI391
S'            errno = self.read_uint16()'
p436
sI392
S'            if DEBUG: print("errno =", errno)'
p437
sI393
S'            err.raise_mysql_exception(self._data)'
p438
sI394
S''
sI395
S'    def dump(self):'
p439
sI396
S'        dump_packet(self._data)'
p440
sI397
S''
ssg89
S'(self=<gluon.contrib.pymysql.connections.MysqlPacket object>)'
p441
sg91
S'check_error'
p442
sa(dp443
g68
S'/Users/Ran/PycharmProjects/untitled/web2py/gluon/contrib/pymysql/err.py'
p444
sg70
(dp445
S'errorclass'
p446
S"<class 'gluon.contrib.pymysql.err.InternalError'>"
p447
sS'errno'
p448
S'1071'
p449
sS'errval'
p450
S"u'Specified key was too long; max key length is 767 bytes'"
p451
ssg76
I107
sg77
(dp452
I98
S'def raise_mysql_exception(data):'
p453
sI99
S"    errno = struct.unpack('<h', data[1:3])[0]"
p454
sI100
S'    is_41 = data[3:4] == b"#"'
p455
sI101
S'    if is_41:'
p456
sI102
S'        # client protocol 4.1'
p457
sI103
S"        errval = data[9:].decode('utf-8', 'replace')"
p458
sI104
S'    else:'
p459
sI105
S"        errval = data[3:].decode('utf-8', 'replace')"
p460
sI106
S'    errorclass = error_map.get(errno, InternalError)'
p461
sI107
S'    raise errorclass(errno, errval)'
p462
ssg89
S"(data='\\xff/\\x04#42000Specified key was too long; max key length is 767 bytes')"
p463
sg91
S'raise_mysql_exception'
p464
sasS'pyver'
p465
S'Python 2.7.8: /usr/local/opt/python/bin/python2.7 (prefix: /usr/local/Cellar/python/2.7.8_2/Frameworks/Python.framework/Versions/2.7)'
p466
sS'session'
p467
g63
(S's\x1a\x00\x00\x00<div><table></table></div>'
tRp468
sS'etype'
p469
S"<class 'gluon.contrib.pymysql.err.InternalError'>"
p470
sS'date'
p471
S'Thu Aug 22 09:39:09 2019'
p472
sS'response'
p473
g63
(S's\xe6<\x00\x00<div><table><tr><td style="font-weight:bold;vertical-align:top;">body</td><td style="vertical-align:top;">:</td><td><div>&lt;cStringIO.StringO object at 0x107fbc2d0&gt;</div></td></tr><tr><td style="font-weight:bold;vertical-align:top;">cookies</td><td style="vertical-align:top;">:</td><td><div><table><tr><td style="font-weight:bold;vertical-align:top;">session_id_shotsapp</td><td style="vertical-align:top;">:</td><td><div>127.0.0.1-48ada8c8-ab72-4d18-b43d-b94569780d61<table><tr><td style="font-weight:bold;vertical-align:top;">comment</td><td style="vertical-align:top;">:</td><td><div></div></td></tr><tr><td style="font-weight:bold;vertical-align:top;">domain</td><td style="vertical-align:top;">:</td><td><div></div></td></tr><tr><td style="font-weight:bold;vertical-align:top;">expires</td><td style="vertical-align:top;">:</td><td><div></div></td></tr><tr><td style="font-weight:bold;vertical-align:top;">httponly</td><td style="vertical-align:top;">:</td><td><div></div></td></tr><tr><td style="font-weight:bold;vertical-align:top;">max-age</td><td style="vertical-align:top;">:</td><td><div></div></td></tr><tr><td style="font-weight:bold;vertical-align:top;">path</td><td style="vertical-align:top;">:</td><td><div>/</div></td></tr><tr><td style="font-weight:bold;vertical-align:top;">samesite</td><td style="vertical-align:top;">:</td><td><div></div></td></tr><tr><td style="font-weight:bold;vertical-align:top;">secure</td><td style="vertical-align:top;">:</td><td><div></div></td></tr><tr><td style="font-weight:bold;vertical-align:top;">version</td><td style="vertical-align:top;">:</td><td><div></div></td></tr></table></div></td></tr></table></div></td></tr><tr><td style="font-weight:bold;vertical-align:top;">delimiters</td><td style="vertical-align:top;">:</td><td><div><table><tr><td><div>{{</div></td></tr><tr><td><div>}}</div></td></tr></table></div></td></tr><tr><td style="font-weight:bold;vertical-align:top;">files</td><td style="vertical-align:top;">:</td><td><div><table></table></div></td></tr><tr><td style="font-weight:bold;vertical-align:top;">flash</td><td style="vertical-align:top;">:</td><td><div></div></td></tr><tr><td style="font-weight:bold;vertical-align:top;">form_label_separator</td><td style="vertical-align:top;">:</td><td><div></div></td></tr><tr><td style="font-weight:bold;vertical-align:top;">formstyle</td><td style="vertical-align:top;">:</td><td><div>bootstrap4_inline</div></td></tr><tr><td style="font-weight:bold;vertical-align:top;">generic_patterns</td><td style="vertical-align:top;">:</td><td><div><table><tr><td><div>*</div></td></tr></table></div></td></tr><tr><td style="font-weight:bold;vertical-align:top;">google_analytics_id</td><td style="vertical-align:top;">:</td><td><div>None</div></td></tr><tr><td style="font-weight:bold;vertical-align:top;">headers</td><td style="vertical-align:top;">:</td><td><div><table><tr><td style="font-weight:bold;vertical-align:top;">X-Powered-By</td><td style="vertical-align:top;">:</td><td><div>web2py</div></td></tr></table></div></td></tr><tr><td style="font-weight:bold;vertical-align:top;">menu</td><td style="vertical-align:top;">:</td><td><div><table><tr><td><div><table><tr><td><div>Home</div></td></tr><tr><td><div>False</div></td></tr><tr><td><div>/shotsapp/default/index</div></td></tr><tr><td><div><table></table></div></td></tr></table></div></td></tr><tr><td><div><table><tr><td><div>My Sites</div></td></tr><tr><td><div>False</div></td></tr><tr><td><div>/admin/default/site</div></td></tr></table></div></td></tr><tr><td><div><table><tr><td><div>This App</div></td></tr><tr><td><div>False</div></td></tr><tr><td><div>#</div></td></tr><tr><td><div><table><tr><td><div><table><tr><td><div>Design</div></td></tr><tr><td><div>False</div></td></tr><tr><td><div>/admin/default/design/shotsapp</div></td></tr></table></div></td></tr><tr><td><div><table><tr><td><div>Controller</div></td></tr><tr><td><div>False</div></td></tr><tr><td><div>/admin/default/edit/shotsapp/controllers/shots.py</div></td></tr></table></div></td></tr><tr><td><div><table><tr><td><div>View</div></td></tr><tr><td><div>False</div></td></tr><tr><td><div>/admin/default/edit/shotsapp/views/shots/status.html</div></td></tr></table></div></td></tr><tr><td><div><table><tr><td><div>DB Model</div></td></tr><tr><td><div>False</div></td></tr><tr><td><div>/admin/default/edit/shotsapp/models/db.py</div></td></tr></table></div></td></tr><tr><td><div><table><tr><td><div>Menu Model</div></td></tr><tr><td><div>False</div></td></tr><tr><td><div>/admin/default/edit/shotsapp/models/menu.py</div></td></tr></table></div></td></tr><tr><td><div><table><tr><td><div>Config.ini</div></td></tr><tr><td><div>False</div></td></tr><tr><td><div>/admin/default/edit/shotsapp/private/appconfig.ini</div></td></tr></table></div></td></tr><tr><td><div><table><tr><td><div>Layout</div></td></tr><tr><td><div>False</div></td></tr><tr><td><div>/admin/default/edit/shotsapp/views/layout.html</div></td></tr></table></div></td></tr><tr><td><div><table><tr><td><div>Stylesheet</div></td></tr><tr><td><div>False</div></td></tr><tr><td><div>/admin/default/edit/shotsapp/static/css/web2py-bootstrap3.css</div></td></tr></table></div></td></tr><tr><td><div><table><tr><td><div>Database</div></td></tr><tr><td><div>False</div></td></tr><tr><td><div>/shotsapp/appadmin/index</div></td></tr></table></div></td></tr><tr><td><div><table><tr><td><div>Errors</div></td></tr><tr><td><div>False</div></td></tr><tr><td><div>/admin/default/errors/shotsapp</div></td></tr></table></div></td></tr><tr><td><div><table><tr><td><div>About</div></td></tr><tr><td><div>False</div></td></tr><tr><td><div>/admin/default/about/shotsapp</div></td></tr></table></div></td></tr></table></div></td></tr></table></div></td></tr><tr><td><div><table><tr><td><div>web2py.com</div></td></tr><tr><td><div>False</div></td></tr><tr><td><div>#</div></td></tr><tr><td><div><table><tr><td><div><table><tr><td><div>Download</div></td></tr><tr><td><div>False</div></td></tr><tr><td><div>http://www.web2py.com/examples/default/download</div></td></tr></table></div></td></tr><tr><td><div><table><tr><td><div>Support</div></td></tr><tr><td><div>False</div></td></tr><tr><td><div>http://www.web2py.com/examples/default/support</div></td></tr></table></div></td></tr><tr><td><div><table><tr><td><div>Demo</div></td></tr><tr><td><div>False</div></td></tr><tr><td><div>http://web2py.com/demo_admin</div></td></tr></table></div></td></tr><tr><td><div><table><tr><td><div>Quick Examples</div></td></tr><tr><td><div>False</div></td></tr><tr><td><div>http://web2py.com/examples/default/examples</div></td></tr></table></div></td></tr><tr><td><div><table><tr><td><div>FAQ</div></td></tr><tr><td><div>False</div></td></tr><tr><td><div>http://web2py.com/AlterEgo</div></td></tr></table></div></td></tr><tr><td><div><table><tr><td><div>Videos</div></td></tr><tr><td><div>False</div></td></tr><tr><td><div>http://www.web2py.com/examples/default/videos/</div></td></tr></table></div></td></tr><tr><td><div><table><tr><td><div>Free Applications</div></td></tr><tr><td><div>False</div></td></tr><tr><td><div>http://web2py.com/appliances</div></td></tr></table></div></td></tr><tr><td><div><table><tr><td><div>Plugins</div></td></tr><tr><td><div>False</div></td></tr><tr><td><div>http://web2py.com/plugins</div></td></tr></table></div></td></tr><tr><td><div><table><tr><td><div>Recipes</div></td></tr><tr><td><div>False</div></td></tr><tr><td><div>http://web2pyslices.com/</div></td></tr></table></div></td></tr></table></div></td></tr></table></div></td></tr><tr><td><div><table><tr><td><div>Documentation</div></td></tr><tr><td><div>False</div></td></tr><tr><td><div>#</div></td></tr><tr><td><div><table><tr><td><div><table><tr><td><div>Online book</div></td></tr><tr><td><div>False</div></td></tr><tr><td><div>http://www.web2py.com/book</div></td></tr></table></div></td></tr><tr><td><div><table><tr><td><div>Preface</div></td></tr><tr><td><div>False</div></td></tr><tr><td><div>http://www.web2py.com/book/default/chapter/00</div></td></tr></table></div></td></tr><tr><td><div><table><tr><td><div>Introduction</div></td></tr><tr><td><div>False</div></td></tr><tr><td><div>http://www.web2py.com/book/default/chapter/01</div></td></tr></table></div></td></tr><tr><td><div><table><tr><td><div>Python</div></td></tr><tr><td><div>False</div></td></tr><tr><td><div>http://www.web2py.com/book/default/chapter/02</div></td></tr></table></div></td></tr><tr><td><div><table><tr><td><div>Overview</div></td></tr><tr><td><div>False</div></td></tr><tr><td><div>http://www.web2py.com/book/default/chapter/03</div></td></tr></table></div></td></tr><tr><td><div><table><tr><td><div>The Core</div></td></tr><tr><td><div>False</div></td></tr><tr><td><div>http://www.web2py.com/book/default/chapter/04</div></td></tr></table></div></td></tr><tr><td><div><table><tr><td><div>The Views</div></td></tr><tr><td><div>False</div></td></tr><tr><td><div>http://www.web2py.com/book/default/chapter/05</div></td></tr></table></div></td></tr><tr><td><div><table><tr><td><div>Database</div></td></tr><tr><td><div>False</div></td></tr><tr><td><div>http://www.web2py.com/book/default/chapter/06</div></td></tr></table></div></td></tr><tr><td><div><table><tr><td><div>Forms and Validators</div></td></tr><tr><td><div>False</div></td></tr><tr><td><div>http://www.web2py.com/book/default/chapter/07</div></td></tr></table></div></td></tr><tr><td><div><table><tr><td><div>Email and SMS</div></td></tr><tr><td><div>False</div></td></tr><tr><td><div>http://www.web2py.com/book/default/chapter/08</div></td></tr></table></div></td></tr><tr><td><div><table><tr><td><div>Access Control</div></td></tr><tr><td><div>False</div></td></tr><tr><td><div>http://www.web2py.com/book/default/chapter/09</div></td></tr></table></div></td></tr><tr><td><div><table><tr><td><div>Services</div></td></tr><tr><td><div>False</div></td></tr><tr><td><div>http://www.web2py.com/book/default/chapter/10</div></td></tr></table></div></td></tr><tr><td><div><table><tr><td><div>Ajax Recipes</div></td></tr><tr><td><div>False</div></td></tr><tr><td><div>http://www.web2py.com/book/default/chapter/11</div></td></tr></table></div></td></tr><tr><td><div><table><tr><td><div>Components and Plugins</div></td></tr><tr><td><div>False</div></td></tr><tr><td><div>http://www.web2py.com/book/default/chapter/12</div></td></tr></table></div></td></tr><tr><td><div><table><tr><td><div>Deployment Recipes</div></td></tr><tr><td><div>False</div></td></tr><tr><td><div>http://www.web2py.com/book/default/chapter/13</div></td></tr></table></div></td></tr><tr><td><div><table><tr><td><div>Other Recipes</div></td></tr><tr><td><div>False</div></td></tr><tr><td><div>http://www.web2py.com/book/default/chapter/14</div></td></tr></table></div></td></tr><tr><td><div><table><tr><td><div>Helping web2py</div></td></tr><tr><td><div>False</div></td></tr><tr><td><div>http://www.web2py.com/book/default/chapter/15</div></td></tr></table></div></td></tr><tr><td><div><table><tr><td><div>Buy web2py\'s book</div></td></tr><tr><td><div>False</div></td></tr><tr><td><div>http://stores.lulu.com/web2py</div></td></tr></table></div></td></tr></table></div></td></tr></table></div></td></tr><tr><td><div><table><tr><td><div>Community</div></td></tr><tr><td><div>False</div></td></tr><tr><td><div>None</div></td></tr><tr><td><div><table><tr><td><div><table><tr><td><div>Groups</div></td></tr><tr><td><div>False</div></td></tr><tr><td><div>http://www.web2py.com/examples/default/usergroups</div></td></tr></table></div></td></tr><tr><td><div><table><tr><td><div>Twitter</div></td></tr><tr><td><div>False</div></td></tr><tr><td><div>http://twitter.com/web2py</div></td></tr></table></div></td></tr><tr><td><div><table><tr><td><div>Live Chat</div></td></tr><tr><td><div>False</div></td></tr><tr><td><div>http://webchat.freenode.net/?channels=web2py</div></td></tr></table></div></td></tr></table></div></td></tr></table></div></td></tr></table></div></td></tr><tr><td style="font-weight:bold;vertical-align:top;">meta</td><td style="vertical-align:top;">:</td><td><div><table><tr><td style="font-weight:bold;vertical-align:top;">author</td><td style="vertical-align:top;">:</td><td><div>Your Name &lt;you@example.com&gt;</div></td></tr><tr><td style="font-weight:bold;vertical-align:top;">description</td><td style="vertical-align:top;">:</td><td><div>a cool new app</div></td></tr><tr><td style="font-weight:bold;vertical-align:top;">generator</td><td style="vertical-align:top;">:</td><td><div>Web2py Web Framework</div></td></tr><tr><td style="font-weight:bold;vertical-align:top;">keywords</td><td style="vertical-align:top;">:</td><td><div><table><tr><td><div>web2py</div></td></tr><tr><td><div>python</div></td></tr><tr><td><div>framework</div></td></tr></table></div></td></tr></table></div></td></tr><tr><td style="font-weight:bold;vertical-align:top;">models_to_run</td><td style="vertical-align:top;">:</td><td><div><table><tr><td><div>^\\w+\\.py$</div></td></tr><tr><td><div>^shots/\\w+\\.py$</div></td></tr><tr><td><div>^shots/status/\\w+\\.py$</div></td></tr></table></div></td></tr><tr><td style="font-weight:bold;vertical-align:top;">postprocessing</td><td style="vertical-align:top;">:</td><td><div><table></table></div></td></tr><tr><td style="font-weight:bold;vertical-align:top;">session_client</td><td style="vertical-align:top;">:</td><td><div>127.0.0.1</div></td></tr><tr><td style="font-weight:bold;vertical-align:top;">session_cookie_compression_level</td><td style="vertical-align:top;">:</td><td><div>None</div></td></tr><tr><td style="font-weight:bold;vertical-align:top;">session_cookie_expires</td><td style="vertical-align:top;">:</td><td><div>None</div></td></tr><tr><td style="font-weight:bold;vertical-align:top;">session_data_name</td><td style="vertical-align:top;">:</td><td><div>session_data_shotsapp</div></td></tr><tr><td style="font-weight:bold;vertical-align:top;">session_file</td><td style="vertical-align:top;">:</td><td><div>None</div></td></tr><tr><td style="font-weight:bold;vertical-align:top;">session_filename</td><td style="vertical-align:top;">:</td><td><div>/Users/Ran/PycharmProjects/untitled/web2py/applications/shotsapp/sessions/127.0.0.1-48ada8c8-ab72-4d18-b43d-b94569780d61</div></td></tr><tr><td style="font-weight:bold;vertical-align:top;">session_hash</td><td style="vertical-align:top;">:</td><td><div>c0762cbf4baf7f9af97c051e7fcb8083</div></td></tr><tr><td style="font-weight:bold;vertical-align:top;">session_id</td><td style="vertical-align:top;">:</td><td><div>127.0.0.1-48ada8c8-ab72-4d18-b43d-b94569780d61</div></td></tr><tr><td style="font-weight:bold;vertical-align:top;">session_id_name</td><td style="vertical-align:top;">:</td><td><div>session_id_shotsapp</div></td></tr><tr><td style="font-weight:bold;vertical-align:top;">session_masterapp</td><td style="vertical-align:top;">:</td><td><div>shotsapp</div></td></tr><tr><td style="font-weight:bold;vertical-align:top;">session_new</td><td style="vertical-align:top;">:</td><td><div>True</div></td></tr><tr><td style="font-weight:bold;vertical-align:top;">session_storage_type</td><td style="vertical-align:top;">:</td><td><div>file</div></td></tr><tr><td style="font-weight:bold;vertical-align:top;">show_toolbar</td><td style="vertical-align:top;">:</td><td><div>False</div></td></tr><tr><td style="font-weight:bold;vertical-align:top;">status</td><td style="vertical-align:top;">:</td><td><div>200</div></td></tr><tr><td style="font-weight:bold;vertical-align:top;">view</td><td style="vertical-align:top;">:</td><td><div>shots/status.html</div></td></tr></table></div>'
tRp474
sS'locals'
p475
(dp476
S'errorclass'
p477
S"<class 'gluon.contrib.pymysql.err.InternalError'>"
p478
sS'errno'
p479
S'1071'
p480
sS'is_41'
p481
S'True'
p482
sS'errval'
p483
S"u'Specified key was too long; max key length is 767 bytes'"
p484
sS'data'
p485
S"'\\xff/\\x04#42000Specified key was too long; max key length is 767 bytes'"
p486
sssS'traceback'
p487
S'Traceback (most recent call last):\n  File "/Users/Ran/PycharmProjects/untitled/web2py/gluon/restricted.py", line 219, in restricted\n    exec(ccode, environment)\n  File "/Users/Ran/PycharmProjects/untitled/web2py/applications/shotsapp/controllers/shots.py", line 80, in <module>\n  File "/Users/Ran/PycharmProjects/untitled/web2py/gluon/globals.py", line 421, in <lambda>\n    self._caller = lambda f: f()\n  File "/Users/Ran/PycharmProjects/untitled/web2py/applications/shotsapp/controllers/shots.py", line 25, in status\n    \'modified\', type="date", writeable="False", readable="True"), Field(\'framesNum\', type="integer", label=\'Number of Frames\'), Field(\'modifier\', type="string", label=\'Modified By\'), Field(\'status\', notnull=\'True\'), Field(\'active\', type=\'boolean\'), Field(\'description\', type=\'text\'))\n  File "/Users/Ran/PycharmProjects/untitled/web2py/gluon/packages/dal/pydal/base.py", line 592, in define_table\n    table = self.lazy_define_table(tablename, *fields, **kwargs)\n  File "/Users/Ran/PycharmProjects/untitled/web2py/gluon/packages/dal/pydal/base.py", line 626, in lazy_define_table\n    polymodel=polymodel)\n  File "/Users/Ran/PycharmProjects/untitled/web2py/gluon/packages/dal/pydal/adapters/base.py", line 798, in create_table\n    return self.migrator.create_table(*args, **kwargs)\n  File "/Users/Ran/PycharmProjects/untitled/web2py/gluon/packages/dal/pydal/migrator.py", line 281, in create_table\n    self.adapter.create_sequence_and_triggers(query, table)\n  File "/Users/Ran/PycharmProjects/untitled/web2py/gluon/packages/dal/pydal/adapters/base.py", line 881, in create_sequence_and_triggers\n    self.execute(query)\n  File "/Users/Ran/PycharmProjects/untitled/web2py/gluon/packages/dal/pydal/adapters/__init__.py", line 67, in wrap\n    return f(*args, **kwargs)\n  File "/Users/Ran/PycharmProjects/untitled/web2py/gluon/packages/dal/pydal/adapters/base.py", line 413, in execute\n    rv = self.cursor.execute(command, *args[1:], **kwargs)\n  File "/Users/Ran/PycharmProjects/untitled/web2py/gluon/contrib/pymysql/cursors.py", line 166, in execute\n    result = self._query(query)\n  File "/Users/Ran/PycharmProjects/untitled/web2py/gluon/contrib/pymysql/cursors.py", line 322, in _query\n    conn.query(q)\n  File "/Users/Ran/PycharmProjects/untitled/web2py/gluon/contrib/pymysql/connections.py", line 835, in query\n    self._affected_rows = self._read_query_result(unbuffered=unbuffered)\n  File "/Users/Ran/PycharmProjects/untitled/web2py/gluon/contrib/pymysql/connections.py", line 1019, in _read_query_result\n    result.read()\n  File "/Users/Ran/PycharmProjects/untitled/web2py/gluon/contrib/pymysql/connections.py", line 1302, in read\n    first_packet = self.connection._read_packet()\n  File "/Users/Ran/PycharmProjects/untitled/web2py/gluon/contrib/pymysql/connections.py", line 981, in _read_packet\n    packet.check_error()\n  File "/Users/Ran/PycharmProjects/untitled/web2py/gluon/contrib/pymysql/connections.py", line 393, in check_error\n    err.raise_mysql_exception(self._data)\n  File "/Users/Ran/PycharmProjects/untitled/web2py/gluon/contrib/pymysql/err.py", line 107, in raise_mysql_exception\n    raise errorclass(errno, errval)\nInternalError: (1071, u\'Specified key was too long; max key length is 767 bytes\')\n'
p488
s.