(dp1
S'output'
p2
S'<class \'gluon.contrib.pymysql.err.ProgrammingError\'> (1146, u"Table \'binjo6x0bhaoabnu.shotstable\' doesn\'t exist")'
p3
sS'layer'
p4
S'/Users/Ran/PycharmProjects/untitled/web2py/applications/shotsapp/controllers/shots.py'
p5
sS'code'
p6
S'<code object <module> at 0x10c5ff930, file "/Users/Ran/PycharmProjects/untitled/web2py/applications/shotsapp/controllers/shots.py", line 4>'
p7
sS'snapshot'
p8
(dp9
S'exception'
p10
(dp11
S'__module__'
p12
S"'gluon.contrib.pymysql.err'"
p13
sS'__getslice__'
p14
S"<method-wrapper '__getslice__' of ProgrammingError object>"
p15
sS'__str__'
p16
S"<method-wrapper '__str__' of ProgrammingError object>"
p17
sS'__reduce__'
p18
S'<built-in method __reduce__ of ProgrammingError object>'
p19
sS'__dict__'
p20
S'{}'
p21
sS'__sizeof__'
p22
S'<built-in method __sizeof__ of ProgrammingError object>'
p23
sS'__weakref__'
p24
S'None'
p25
sS'message'
p26
S"''"
p27
sS'__init__'
p28
S"<method-wrapper '__init__' of ProgrammingError object>"
p29
sS'__setattr__'
p30
S"<method-wrapper '__setattr__' of ProgrammingError object>"
p31
sS'__reduce_ex__'
p32
S'<built-in method __reduce_ex__ of ProgrammingError object>'
p33
sS'__new__'
p34
S'<built-in method __new__ of type object>'
p35
sS'__format__'
p36
S'<built-in method __format__ of ProgrammingError object>'
p37
sS'__class__'
p38
S"<class 'gluon.contrib.pymysql.err.ProgrammingError'>"
p39
sS'__doc__'
p40
S"'Exception raised for programming errors, e.g. ta...t, wrong number\\n    of parameters specified, etc.'"
p41
sS'__getitem__'
p42
S"<method-wrapper '__getitem__' of ProgrammingError object>"
p43
sS'__setstate__'
p44
S'<built-in method __setstate__ of ProgrammingError object>'
p45
sS'__getattribute__'
p46
S"<method-wrapper '__getattribute__' of ProgrammingError object>"
p47
sS'args'
p48
S'(1146, u"Table \'binjo6x0bhaoabnu.shotstable\' doesn\'t exist")'
p49
sS'__subclasshook__'
p50
S'<built-in method __subclasshook__ of type object>'
p51
sS'__unicode__'
p52
S'<built-in method __unicode__ of ProgrammingError object>'
p53
sS'__delattr__'
p54
S"<method-wrapper '__delattr__' of ProgrammingError object>"
p55
sS'__repr__'
p56
S"<method-wrapper '__repr__' of ProgrammingError object>"
p57
sS'__hash__'
p58
S"<method-wrapper '__hash__' of ProgrammingError object>"
p59
ssS'evalue'
p60
S'(1146, u"Table \'binjo6x0bhaoabnu.shotstable\' doesn\'t exist")'
p61
sS'request'
p62
cgluon.html
XML_unpickle
p63
(S's\xc4Q\x00\x00<div><table><tr><td style="font-weight:bold;vertical-align:top;">ajax</td><td style="vertical-align:top;">:</td><td><div>False</div></td></tr><tr><td style="font-weight:bold;vertical-align:top;">application</td><td style="vertical-align:top;">:</td><td><div>shotsapp</div></td></tr><tr><td style="font-weight:bold;vertical-align:top;">args</td><td style="vertical-align:top;">:</td><td><div><table></table></div></td></tr><tr><td style="font-weight:bold;vertical-align:top;">cid</td><td style="vertical-align:top;">:</td><td><div>None</div></td></tr><tr><td style="font-weight:bold;vertical-align:top;">client</td><td style="vertical-align:top;">:</td><td><div>127.0.0.1</div></td></tr><tr><td style="font-weight:bold;vertical-align:top;">controller</td><td style="vertical-align:top;">:</td><td><div>shots</div></td></tr><tr><td style="font-weight:bold;vertical-align:top;">cookies</td><td style="vertical-align:top;">:</td><td><div><table></table></div></td></tr><tr><td style="font-weight:bold;vertical-align:top;">env</td><td style="vertical-align:top;">:</td><td><div><table><tr><td style="font-weight:bold;vertical-align:top;">HTTP_ACCEPT</td><td style="vertical-align:top;">:</td><td><div>text/html,application/xhtml+xml,application/xml;q=0.9,image/webp,image/apng,*/*;q=0.8,application/signed-exchange;v=b3</div></td></tr><tr><td style="font-weight:bold;vertical-align:top;">HTTP_ACCEPT_ENCODING</td><td style="vertical-align:top;">:</td><td><div>gzip, deflate, br</div></td></tr><tr><td style="font-weight:bold;vertical-align:top;">HTTP_ACCEPT_LANGUAGE</td><td style="vertical-align:top;">:</td><td><div>en-US,en;q=0.9,he;q=0.8</div></td></tr><tr><td style="font-weight:bold;vertical-align:top;">HTTP_CONNECTION</td><td style="vertical-align:top;">:</td><td><div>keep-alive</div></td></tr><tr><td style="font-weight:bold;vertical-align:top;">HTTP_COOKIE</td><td style="vertical-align:top;">:</td><td><div>_ga=GA1.1.944207612.1545615973</div></td></tr><tr><td style="font-weight:bold;vertical-align:top;">HTTP_HOST</td><td style="vertical-align:top;">:</td><td><div>localhost:8000</div></td></tr><tr><td style="font-weight:bold;vertical-align:top;">HTTP_REFERER</td><td style="vertical-align:top;">:</td><td><div>http://localhost:8000/shotsapp/shots/status</div></td></tr><tr><td style="font-weight:bold;vertical-align:top;">HTTP_SEC_FETCH_MODE</td><td style="vertical-align:top;">:</td><td><div>navigate</div></td></tr><tr><td style="font-weight:bold;vertical-align:top;">HTTP_SEC_FETCH_SITE</td><td style="vertical-align:top;">:</td><td><div>none</div></td></tr><tr><td style="font-weight:bold;vertical-align:top;">HTTP_SEC_FETCH_USER</td><td style="vertical-align:top;">:</td><td><div>?1</div></td></tr><tr><td style="font-weight:bold;vertical-align:top;">HTTP_UPGRADE_INSECURE_REQUESTS</td><td style="vertical-align:top;">:</td><td><div>1</div></td></tr><tr><td style="font-weight:bold;vertical-align:top;">HTTP_USER_AGENT</td><td style="vertical-align:top;">:</td><td><div>Mozilla/5.0 (Macintosh; Intel Mac OS X 10_14_0) AppleWebKit/537.36 (KHTML, like Gecko) Chrome/76.0.3809.100 Safari/537.36</div></td></tr><tr><td style="font-weight:bold;vertical-align:top;">PATH_INFO</td><td style="vertical-align:top;">:</td><td><div>/shotsapp/shots/status</div></td></tr><tr><td style="font-weight:bold;vertical-align:top;">QUERY_STRING</td><td style="vertical-align:top;">:</td><td><div></div></td></tr><tr><td style="font-weight:bold;vertical-align:top;">REMOTE_ADDR</td><td style="vertical-align:top;">:</td><td><div>127.0.0.1</div></td></tr><tr><td style="font-weight:bold;vertical-align:top;">REMOTE_PORT</td><td style="vertical-align:top;">:</td><td><div>54327</div></td></tr><tr><td style="font-weight:bold;vertical-align:top;">REQUEST_METHOD</td><td style="vertical-align:top;">:</td><td><div>GET</div></td></tr><tr><td style="font-weight:bold;vertical-align:top;">SCRIPT_NAME</td><td style="vertical-align:top;">:</td><td><div></div></td></tr><tr><td style="font-weight:bold;vertical-align:top;">SERVER_NAME</td><td style="vertical-align:top;">:</td><td><div>MacBook-Pro.local</div></td></tr><tr><td style="font-weight:bold;vertical-align:top;">SERVER_PORT</td><td style="vertical-align:top;">:</td><td><div>8000</div></td></tr><tr><td style="font-weight:bold;vertical-align:top;">SERVER_PROTOCOL</td><td style="vertical-align:top;">:</td><td><div>HTTP/1.1</div></td></tr><tr><td style="font-weight:bold;vertical-align:top;">SERVER_SOFTWARE</td><td style="vertical-align:top;">:</td><td><div>Rocket 1.2.6</div></td></tr><tr><td style="font-weight:bold;vertical-align:top;">app_folders</td><td style="vertical-align:top;">:</td><td><div>set([&#x27;/Users/Ran/PycharmProjects/untitled/web2py/applications/shotsapp&#x27;, &#x27;/Users/Ran/PycharmProjects/untitled/web2py/applications/admin&#x27;, &#x27;/Users/Ran/PycharmProjects/untitled/web2py/applications/welcome&#x27;])</div></td></tr><tr><td style="font-weight:bold;vertical-align:top;">applications_parent</td><td style="vertical-align:top;">:</td><td><div>/Users/Ran/PycharmProjects/untitled/web2py</div></td></tr><tr><td style="font-weight:bold;vertical-align:top;">cmd_args</td><td style="vertical-align:top;">:</td><td><div><table></table></div></td></tr><tr><td style="font-weight:bold;vertical-align:top;">cmd_options</td><td style="vertical-align:top;">:</td><td><div>&lt;Values at 0x10646d8c0: {&#x27;verbose&#x27;: False, &#x27;ip&#x27;: &#x27;127.0.0.1&#x27;, &#x27;debuglevel&#x27;: 30, &#x27;with_scheduler&#x27;: False, &#x27;shutdown_timeout&#x27;: 5, &#x27;taskbar&#x27;: False, &#x27;with_coverage&#x27;: False, &#x27;pid_filename&#x27;: &#x27;httpserver.pid&#x27;, &#x27;maxthreads&#x27;: None, &#x27;softcron&#x27;: False, &#x27;server_name&#x27;: &#x27;MacBook-Pro.local&#x27;, &#x27;bpython&#x27;: False, &#x27;nogui&#x27;: False, &#x27;port&#x27;: 8000, &#x27;print_errors&#x27;: False, &#x27;extcron&#x27;: False, &#x27;runcron&#x27;: False, &#x27;run_system_tests&#x27;: False, &#x27;test&#x27;: None, &#x27;folder&#x27;: &#x27;/Users/Ran/PycharmProjects/untitled/web2py&#x27;, &#x27;config&#x27;: &#x27;&#x27;, &#x27;minthreads&#x27;: None, &#x27;shell&#x27;: None, &#x27;run&#x27;: &#x27;&#x27;, &#x27;log_filename&#x27;: &#x27;httpserver.log&#x27;, &#x27;profiler_dir&#x27;: None, &#x27;args&#x27;: [], &#x27;socket_timeout&#x27;: 5, &#x27;ssl_ca_certificate&#x27;: None, &#x27;scheduler&#x27;: None, &#x27;interfaces&#x27;: None, &#x27;ssl_private_key&#x27;: &#x27;&#x27;, &#x27;gae&#x27;: None, &#x27;password&#x27;: &#x27;******&#x27;, &#x27;request_queue_size&#x27;: 5, &#x27;ssl_certificate&#x27;: &#x27;&#x27;, &#x27;cronjob&#x27;: False, &#x27;numthreads&#x27;: None, &#x27;quiet&#x27;: False, &#x27;import_models&#x27;: False, &#x27;timeout&#x27;: 10, &#x27;plain&#x27;: False, &#x27;nobanner&#x27;: False}&gt;</div></td></tr><tr><td style="font-weight:bold;vertical-align:top;">db_sessions</td><td style="vertical-align:top;">:</td><td><div>set([])</div></td></tr><tr><td style="font-weight:bold;vertical-align:top;">debugging</td><td style="vertical-align:top;">:</td><td><div>False</div></td></tr><tr><td style="font-weight:bold;vertical-align:top;">gluon_parent</td><td style="vertical-align:top;">:</td><td><div>/Users/Ran/PycharmProjects/untitled/web2py</div></td></tr><tr><td style="font-weight:bold;vertical-align:top;">http_accept</td><td style="vertical-align:top;">:</td><td><div>text/html,application/xhtml+xml,application/xml;q=0.9,image/webp,image/apng,*/*;q=0.8,application/signed-exchange;v=b3</div></td></tr><tr><td style="font-weight:bold;vertical-align:top;">http_accept_encoding</td><td style="vertical-align:top;">:</td><td><div>gzip, deflate, br</div></td></tr><tr><td style="font-weight:bold;vertical-align:top;">http_accept_language</td><td style="vertical-align:top;">:</td><td><div>en-US,en;q=0.9,he;q=0.8</div></td></tr><tr><td style="font-weight:bold;vertical-align:top;">http_connection</td><td style="vertical-align:top;">:</td><td><div>keep-alive</div></td></tr><tr><td style="font-weight:bold;vertical-align:top;">http_cookie</td><td style="vertical-align:top;">:</td><td><div>_ga=GA1.1.944207612.1545615973</div></td></tr><tr><td style="font-weight:bold;vertical-align:top;">http_host</td><td style="vertical-align:top;">:</td><td><div>localhost:8000</div></td></tr><tr><td style="font-weight:bold;vertical-align:top;">http_referer</td><td style="vertical-align:top;">:</td><td><div>http://localhost:8000/shotsapp/shots/status</div></td></tr><tr><td style="font-weight:bold;vertical-align:top;">http_sec_fetch_mode</td><td style="vertical-align:top;">:</td><td><div>navigate</div></td></tr><tr><td style="font-weight:bold;vertical-align:top;">http_sec_fetch_site</td><td style="vertical-align:top;">:</td><td><div>none</div></td></tr><tr><td style="font-weight:bold;vertical-align:top;">http_sec_fetch_user</td><td style="vertical-align:top;">:</td><td><div>?1</div></td></tr><tr><td style="font-weight:bold;vertical-align:top;">http_upgrade_insecure_requests</td><td style="vertical-align:top;">:</td><td><div>1</div></td></tr><tr><td style="font-weight:bold;vertical-align:top;">http_user_agent</td><td style="vertical-align:top;">:</td><td><div>Mozilla/5.0 (Macintosh; Intel Mac OS X 10_14_0) AppleWebKit/537.36 (KHTML, like Gecko) Chrome/76.0.3809.100 Safari/537.36</div></td></tr><tr><td style="font-weight:bold;vertical-align:top;">is_jython</td><td style="vertical-align:top;">:</td><td><div>False</div></td></tr><tr><td style="font-weight:bold;vertical-align:top;">is_py2</td><td style="vertical-align:top;">:</td><td><div>True</div></td></tr><tr><td style="font-weight:bold;vertical-align:top;">is_pypy</td><td style="vertical-align:top;">:</td><td><div>False</div></td></tr><tr><td style="font-weight:bold;vertical-align:top;">is_source</td><td style="vertical-align:top;">:</td><td><div>True</div></td></tr><tr><td style="font-weight:bold;vertical-align:top;">local_hosts</td><td style="vertical-align:top;">:</td><td><div><table><tr><td><div>MacBook-Pro.local</div></td></tr><tr><td><div>::1</div></td></tr><tr><td><div>::ffff:127.0.0.1</div></td></tr><tr><td><div>127.0.0.1</div></td></tr></table></div></td></tr><tr><td style="font-weight:bold;vertical-align:top;">path_info</td><td style="vertical-align:top;">:</td><td><div>/shotsapp/shots/status</div></td></tr><tr><td style="font-weight:bold;vertical-align:top;">query_string</td><td style="vertical-align:top;">:</td><td><div></div></td></tr><tr><td style="font-weight:bold;vertical-align:top;">remote_addr</td><td style="vertical-align:top;">:</td><td><div>127.0.0.1</div></td></tr><tr><td style="font-weight:bold;vertical-align:top;">remote_port</td><td style="vertical-align:top;">:</td><td><div>54327</div></td></tr><tr><td style="font-weight:bold;vertical-align:top;">request_method</td><td style="vertical-align:top;">:</td><td><div>GET</div></td></tr><tr><td style="font-weight:bold;vertical-align:top;">request_uri</td><td style="vertical-align:top;">:</td><td><div>/shotsapp/shots/status</div></td></tr><tr><td style="font-weight:bold;vertical-align:top;">script_name</td><td style="vertical-align:top;">:</td><td><div></div></td></tr><tr><td style="font-weight:bold;vertical-align:top;">server_name</td><td style="vertical-align:top;">:</td><td><div>MacBook-Pro.local</div></td></tr><tr><td style="font-weight:bold;vertical-align:top;">server_port</td><td style="vertical-align:top;">:</td><td><div>8000</div></td></tr><tr><td style="font-weight:bold;vertical-align:top;">server_protocol</td><td style="vertical-align:top;">:</td><td><div>HTTP/1.1</div></td></tr><tr><td style="font-weight:bold;vertical-align:top;">server_software</td><td style="vertical-align:top;">:</td><td><div>Rocket 1.2.6</div></td></tr><tr><td style="font-weight:bold;vertical-align:top;">web2py_path</td><td style="vertical-align:top;">:</td><td><div>/Users/Ran/PycharmProjects/untitled/web2py</div></td></tr><tr><td style="font-weight:bold;vertical-align:top;">web2py_version</td><td style="vertical-align:top;">:</td><td><div>2.18.5-stable+timestamp.2019.04.08.04.22.03</div></td></tr><tr><td style="font-weight:bold;vertical-align:top;">wsgi.errors</td><td style="vertical-align:top;">:</td><td><div>&lt;open file &#x27;&lt;stderr&gt;&#x27;, mode &#x27;w&#x27; at 0x1052be1e0&gt;</div></td></tr><tr><td style="font-weight:bold;vertical-align:top;">wsgi.file_wrapper</td><td style="vertical-align:top;">:</td><td><div>&lt;class wsgiref.util.FileWrapper at 0x10640ece8&gt;</div></td></tr><tr><td style="font-weight:bold;vertical-align:top;">wsgi.input</td><td style="vertical-align:top;">:</td><td><div>&lt;socket._fileobject object at 0x10c5ff450&gt;</div></td></tr><tr><td style="font-weight:bold;vertical-align:top;">wsgi.multiprocess</td><td style="vertical-align:top;">:</td><td><div>False</div></td></tr><tr><td style="font-weight:bold;vertical-align:top;">wsgi.multithread</td><td style="vertical-align:top;">:</td><td><div>True</div></td></tr><tr><td style="font-weight:bold;vertical-align:top;">wsgi.run_once</td><td style="vertical-align:top;">:</td><td><div>False</div></td></tr><tr><td style="font-weight:bold;vertical-align:top;">wsgi.url_scheme</td><td style="vertical-align:top;">:</td><td><div>http</div></td></tr><tr><td style="font-weight:bold;vertical-align:top;">wsgi.version</td><td style="vertical-align:top;">:</td><td><div><table><tr><td><div>1</div></td></tr><tr><td><div>0</div></td></tr></table></div></td></tr><tr><td style="font-weight:bold;vertical-align:top;">wsgi_errors</td><td style="vertical-align:top;">:</td><td><div>&lt;open file &#x27;&lt;stderr&gt;&#x27;, mode &#x27;w&#x27; at 0x1052be1e0&gt;</div></td></tr><tr><td style="font-weight:bold;vertical-align:top;">wsgi_file_wrapper</td><td style="vertical-align:top;">:</td><td><div>&lt;class wsgiref.util.FileWrapper at 0x10640ece8&gt;</div></td></tr><tr><td style="font-weight:bold;vertical-align:top;">wsgi_input</td><td style="vertical-align:top;">:</td><td><div>&lt;socket._fileobject object at 0x10c5ff450&gt;</div></td></tr><tr><td style="font-weight:bold;vertical-align:top;">wsgi_multiprocess</td><td style="vertical-align:top;">:</td><td><div>False</div></td></tr><tr><td style="font-weight:bold;vertical-align:top;">wsgi_multithread</td><td style="vertical-align:top;">:</td><td><div>True</div></td></tr><tr><td style="font-weight:bold;vertical-align:top;">wsgi_run_once</td><td style="vertical-align:top;">:</td><td><div>False</div></td></tr><tr><td style="font-weight:bold;vertical-align:top;">wsgi_url_scheme</td><td style="vertical-align:top;">:</td><td><div>http</div></td></tr><tr><td style="font-weight:bold;vertical-align:top;">wsgi_version</td><td style="vertical-align:top;">:</td><td><div><table><tr><td><div>1</div></td></tr><tr><td><div>0</div></td></tr></table></div></td></tr></table></div></td></tr><tr><td style="font-weight:bold;vertical-align:top;">extension</td><td style="vertical-align:top;">:</td><td><div>html</div></td></tr><tr><td style="font-weight:bold;vertical-align:top;">folder</td><td style="vertical-align:top;">:</td><td><div>/Users/Ran/PycharmProjects/untitled/web2py/applications/shotsapp</div></td></tr><tr><td style="font-weight:bold;vertical-align:top;">function</td><td style="vertical-align:top;">:</td><td><div>status</div></td></tr><tr><td style="font-weight:bold;vertical-align:top;">global_settings</td><td style="vertical-align:top;">:</td><td><div><table><tr><td style="font-weight:bold;vertical-align:top;">app_folders</td><td style="vertical-align:top;">:</td><td><div>set([&#x27;/Users/Ran/PycharmProjects/untitled/web2py/applications/shotsapp&#x27;, &#x27;/Users/Ran/PycharmProjects/untitled/web2py/applications/admin&#x27;, &#x27;/Users/Ran/PycharmProjects/untitled/web2py/applications/welcome&#x27;])</div></td></tr><tr><td style="font-weight:bold;vertical-align:top;">applications_parent</td><td style="vertical-align:top;">:</td><td><div>/Users/Ran/PycharmProjects/untitled/web2py</div></td></tr><tr><td style="font-weight:bold;vertical-align:top;">cmd_args</td><td style="vertical-align:top;">:</td><td><div><table></table></div></td></tr><tr><td style="font-weight:bold;vertical-align:top;">cmd_options</td><td style="vertical-align:top;">:</td><td><div>&lt;Values at 0x10646d8c0: {&#x27;verbose&#x27;: False, &#x27;ip&#x27;: &#x27;127.0.0.1&#x27;, &#x27;debuglevel&#x27;: 30, &#x27;with_scheduler&#x27;: False, &#x27;shutdown_timeout&#x27;: 5, &#x27;taskbar&#x27;: False, &#x27;with_coverage&#x27;: False, &#x27;pid_filename&#x27;: &#x27;httpserver.pid&#x27;, &#x27;maxthreads&#x27;: None, &#x27;softcron&#x27;: False, &#x27;server_name&#x27;: &#x27;MacBook-Pro.local&#x27;, &#x27;bpython&#x27;: False, &#x27;nogui&#x27;: False, &#x27;port&#x27;: 8000, &#x27;print_errors&#x27;: False, &#x27;extcron&#x27;: False, &#x27;runcron&#x27;: False, &#x27;run_system_tests&#x27;: False, &#x27;test&#x27;: None, &#x27;folder&#x27;: &#x27;/Users/Ran/PycharmProjects/untitled/web2py&#x27;, &#x27;config&#x27;: &#x27;&#x27;, &#x27;minthreads&#x27;: None, &#x27;shell&#x27;: None, &#x27;run&#x27;: &#x27;&#x27;, &#x27;log_filename&#x27;: &#x27;httpserver.log&#x27;, &#x27;profiler_dir&#x27;: None, &#x27;args&#x27;: [], &#x27;socket_timeout&#x27;: 5, &#x27;ssl_ca_certificate&#x27;: None, &#x27;scheduler&#x27;: None, &#x27;interfaces&#x27;: None, &#x27;ssl_private_key&#x27;: &#x27;&#x27;, &#x27;gae&#x27;: None, &#x27;password&#x27;: &#x27;******&#x27;, &#x27;request_queue_size&#x27;: 5, &#x27;ssl_certificate&#x27;: &#x27;&#x27;, &#x27;cronjob&#x27;: False, &#x27;numthreads&#x27;: None, &#x27;quiet&#x27;: False, &#x27;import_models&#x27;: False, &#x27;timeout&#x27;: 10, &#x27;plain&#x27;: False, &#x27;nobanner&#x27;: False}&gt;</div></td></tr><tr><td style="font-weight:bold;vertical-align:top;">db_sessions</td><td style="vertical-align:top;">:</td><td><div>set([])</div></td></tr><tr><td style="font-weight:bold;vertical-align:top;">debugging</td><td style="vertical-align:top;">:</td><td><div>False</div></td></tr><tr><td style="font-weight:bold;vertical-align:top;">gluon_parent</td><td style="vertical-align:top;">:</td><td><div>/Users/Ran/PycharmProjects/untitled/web2py</div></td></tr><tr><td style="font-weight:bold;vertical-align:top;">is_jython</td><td style="vertical-align:top;">:</td><td><div>False</div></td></tr><tr><td style="font-weight:bold;vertical-align:top;">is_py2</td><td style="vertical-align:top;">:</td><td><div>True</div></td></tr><tr><td style="font-weight:bold;vertical-align:top;">is_pypy</td><td style="vertical-align:top;">:</td><td><div>False</div></td></tr><tr><td style="font-weight:bold;vertical-align:top;">is_source</td><td style="vertical-align:top;">:</td><td><div>True</div></td></tr><tr><td style="font-weight:bold;vertical-align:top;">local_hosts</td><td style="vertical-align:top;">:</td><td><div><table><tr><td><div>MacBook-Pro.local</div></td></tr><tr><td><div>::1</div></td></tr><tr><td><div>::ffff:127.0.0.1</div></td></tr><tr><td><div>127.0.0.1</div></td></tr></table></div></td></tr><tr><td style="font-weight:bold;vertical-align:top;">web2py_version</td><td style="vertical-align:top;">:</td><td><div>2.18.5-stable+timestamp.2019.04.08.04.22.03</div></td></tr></table></div></td></tr><tr><td style="font-weight:bold;vertical-align:top;">is_https</td><td style="vertical-align:top;">:</td><td><div>False</div></td></tr><tr><td style="font-weight:bold;vertical-align:top;">is_local</td><td style="vertical-align:top;">:</td><td><div>True</div></td></tr><tr><td style="font-weight:bold;vertical-align:top;">is_restful</td><td style="vertical-align:top;">:</td><td><div>False</div></td></tr><tr><td style="font-weight:bold;vertical-align:top;">is_scheduler</td><td style="vertical-align:top;">:</td><td><div>False</div></td></tr><tr><td style="font-weight:bold;vertical-align:top;">is_shell</td><td style="vertical-align:top;">:</td><td><div>False</div></td></tr><tr><td style="font-weight:bold;vertical-align:top;">method</td><td style="vertical-align:top;">:</td><td><div>GET</div></td></tr><tr><td style="font-weight:bold;vertical-align:top;">now</td><td style="vertical-align:top;">:</td><td><div>datetime.datetime(2019, 8, 22, 3, 43, 55, 549557)</div></td></tr><tr><td style="font-weight:bold;vertical-align:top;">raw_args</td><td style="vertical-align:top;">:</td><td><div></div></td></tr><tr><td style="font-weight:bold;vertical-align:top;">raw_extension</td><td style="vertical-align:top;">:</td><td><div>None</div></td></tr><tr><td style="font-weight:bold;vertical-align:top;">url</td><td style="vertical-align:top;">:</td><td><div>/shotsapp/shots/status</div></td></tr><tr><td style="font-weight:bold;vertical-align:top;">utcnow</td><td style="vertical-align:top;">:</td><td><div>datetime.datetime(2019, 8, 22, 0, 43, 55, 549563)</div></td></tr><tr><td style="font-weight:bold;vertical-align:top;">wsgi</td><td style="vertical-align:top;">:</td><td><div>&lt;gluon.main.LazyWSGI object at 0x10c5ec0d0&gt;</div></td></tr></table></div>'
tRp64
sS'frames'
p65
(lp66
(dp67
S'file'
p68
S'/Users/Ran/PycharmProjects/untitled/web2py/gluon/restricted.py'
p69
sS'dump'
p70
(dp71
S'environment'
p72
S"{'A': <class 'gluon.html.A'>, 'ANY_OF': <class 'pydal.validators.ANY_OF'>, 'ASSIGNJS': <function ASSIGNJS>, 'AppConfig': <function AppConfig>, 'Auth': <class 'gluon.tools.Auth'>, 'B': <class 'gluon.html.B'>, 'BEAUTIFY': <class 'gluon.html.BEAUTIFY'>, 'BODY': <class 'gluon.html.BODY'>, 'BR': <class 'gluon.html.BR'>, 'BUTTON': <class 'gluon.html.BUTTON'>, ...}"
p73
sS'ccode'
p74
S'<code object <module> at 0x10c5ff930, file "/Use...lications/shotsapp/controllers/shots.py", line 4>'
p75
ssS'lnum'
p76
I219
sS'lines'
p77
(dp78
I214
S'    if environment is None:'
p79
sI215
S'        environment = {}'
p80
sI216
S"    environment['__file__'] = layer"
p81
sI217
S"    environment['__name__'] = '__restricted__'"
p82
sI218
S'    try:'
p83
sI219
S'        exec(ccode, environment)'
p84
sI220
S'    except HTTP:'
p85
sI221
S'        raise'
p86
sI222
S'    except RestrictedError:'
p87
sI223
S'        # do not encapsulate (obfuscate) the original RestrictedError'
p88
ssS'call'
p89
S'(ccode=<code object <module> at 0x10c5ff930, file "/Use...lications/shotsapp/controllers/shots.py", line 4>, environment={\'A\': <class \'gluon.html.A\'>, \'ANY_OF\': <class \'pydal.validators.ANY_OF\'>, \'ASSIGNJS\': <function ASSIGNJS>, \'AppConfig\': <function AppConfig>, \'Auth\': <class \'gluon.tools.Auth\'>, \'B\': <class \'gluon.html.B\'>, \'BEAUTIFY\': <class \'gluon.html.BEAUTIFY\'>, \'BODY\': <class \'gluon.html.BODY\'>, \'BR\': <class \'gluon.html.BR\'>, \'BUTTON\': <class \'gluon.html.BUTTON\'>, ...}, layer=\'/Users/Ran/PycharmProjects/untitled/web2py/applications/shotsapp/controllers/shots.py\', scode=<code object <module> at 0x10c5ff930, file "/Use...lications/shotsapp/controllers/shots.py", line 4>)'
p90
sS'func'
p91
S'restricted'
p92
sa(dp93
g68
S'/Users/Ran/PycharmProjects/untitled/web2py/applications/shotsapp/controllers/shots.py'
p94
sg70
(dp95
sg76
I80
sg77
(dp96
I69
S'                                          description=request.post_vars.description)'
p97
sI70
S'            redirect(currPath)'
p98
sI71
S''
sI72
S''
sI73
S"    form['_style'] = ''"
p99
sI74
S"    for input in form.elements('input', _class='string'):"
p100
sI75
S"        input['_class'] = ''"
p101
sI76
S''
sI77
S"    response.view = '../views/default/status.html'"
p102
sI78
S'    return dict(message=form, shotList=XML(shotlist))'
p103
ssg89
S'()'
p104
sg91
S'<module>'
p105
sa(dp106
g68
S'/Users/Ran/PycharmProjects/untitled/web2py/gluon/globals.py'
p107
sg70
(dp108
S'self'
p109
S'undefined'
p110
sS'f'
S'<function status>'
p111
ssg76
I421
sg77
(dp112
I416
S"        self.flash = ''            # used by the default view layout"
p113
sI417
S'        self.meta = Storage()      # used by web2py_ajax.html'
p114
sI418
S'        self.menu = []             # used by the default view layout'
p115
sI419
S'        self.files = []            # used by web2py_ajax.html'
p116
sI420
S'        self._vars = None'
p117
sI421
S'        self._caller = lambda f: f()'
p118
sI422
S'        self._view_environment = None'
p119
sI423
S'        self._custom_commit = None'
p120
sI424
S'        self._custom_rollback = None'
p121
sI425
S"        self.generic_patterns = ['*']"
p122
ssg89
S'(f=<function status>)'
p123
sg91
S'<lambda>'
p124
sa(dp125
g68
S'/Users/Ran/PycharmProjects/untitled/web2py/applications/shotsapp/controllers/shots.py'
p126
sg70
(dp127
S'name'
p128
g110
sS'global status'
p129
S'<function status>'
p130
sS'builtinTrue'
p131
S'True'
p132
sS'description'
p133
g110
sS'statusColor'
p134
g110
sS'modified'
p135
g110
sS'db.shotsTable'
p136
S'<Table shotsTable (id, name, modified, framesNum, modifier, status, active, description)>'
p137
sS'active'
p138
g110
sS'global db'
p139
S'<DAL uri="mysql://******@w1kr9ijlozl9l79i.chr7pe...-west-1.rds.amazonaws.com:3306/binjo6x0bhaoabnu">'
p140
sS'modifier'
p141
g110
sS'db.shotsTable.validate_and_insert'
p142
S'<bound method Table.validate_and_insert of <Tabl...amesNum, modifier, status, active, description)>>'
p143
sS'framesNum'
p144
g110
ssg76
I29
sg77
(dp145
I32
S''
sI33
S"    shotlist = str(DIV(A('+ Create new Shot', _href=URL('status/'), _style='color: white'), _class='shot-list-item'))"
p146
sI24
S'    db.define_table(\'shotsTable\', Field(\'name\', type="string",label=\'Name\', required="True", unique="True", notnull="True"), Field('
p147
sI25
S'        \'modified\', type="date", writeable="False", readable="True"), Field(\'framesNum\', type="integer", label=\'Number of Frames\'), Field(\'modifier\', type="string", label=\'Modified By\'), Field(\'status\', notnull=\'True\'), Field(\'active\', type=\'boolean\'), Field(\'description\', type=\'text\'))'
p148
sI26
S"    db.shotsTable.status.requires = IS_IN_DB(db, 'statuses.name',zero=None)"
p149
sI27
S''
sI28
S'    # get all shots'
p150
sI29
S"    db.shotsTable.validate_and_insert(name='shot 08', modified='2019-4-4', framesNum=65, modifier='Ran', status='pis da', statusColor='kaki', active=True, description='who cates')"
p151
sI30
S'    db.shotsTable.id.readable = False'
p152
sI31
S''
ssg89
S'()'
p153
sg91
S'status'
p154
sa(dp155
g68
S'/Users/Ran/PycharmProjects/untitled/web2py/gluon/packages/dal/pydal/objects.py'
p156
sg70
(dp157
S'self._validate_fields'
p158
S'<bound method Table._validate_fields of <Table s...amesNum, modifier, status, active, description)>>'
p159
sS'fields'
p160
S"{'active': True, 'description': 'who cates', 'framesNum': 65, 'modified': '2019-4-4', 'modifier': 'Ran', 'name': 'shot 08', 'status': 'pis da', 'statusColor': 'kaki'}"
p161
sS'self'
p162
S'<Table shotsTable (id, name, modified, framesNum, modifier, status, active, description)>'
p163
sS'new_fields'
p164
g110
sS'response'
p165
g110
ssg76
I789
sg77
(dp166
I784
S'                # only write if the field was passed and no error'
p167
sI785
S'                new_fields[field.name] = value'
p168
sI786
S'        return response, new_fields'
p169
sI787
S''
sI788
S'    def validate_and_insert(self, **fields):'
p170
sI789
S"        response, new_fields = self._validate_fields(fields, 'default')"
p171
sI790
S'        if not response.errors:'
p172
sI791
S'            response.id = self.insert(**new_fields)'
p173
sI792
S'        return response'
p174
sI793
S''
ssg89
S"(self=<Table shotsTable (id, name, modified, framesNum, modifier, status, active, description)>, **fields={'active': True, 'description': 'who cates', 'framesNum': 65, 'modified': '2019-4-4', 'modifier': 'Ran', 'name': 'shot 08', 'status': 'pis da', 'statusColor': 'kaki'})"
p175
sg91
S'validate_and_insert'
p176
sa(dp177
g68
S'/Users/Ran/PycharmProjects/untitled/web2py/gluon/packages/dal/pydal/objects.py'
p178
sg70
(dp179
S'field'
p180
S'<pydal.objects.Field object>'
p181
sS'field.validate'
p182
S'<bound method Field.validate of <pydal.objects.Field object>>'
p183
sS'value'
p184
S"'shot 08'"
p185
sS'error'
p186
S'None'
p187
ssg76
I780
sg77
(dp188
I775
S'                default = getattr(field, defattr)'
p189
sI776
S'                if callable(default):'
p190
sI777
S'                    default = default()'
p191
sI778
S'            if not field.compute:'
p192
sI779
S'                value = fields.get(field.name, default)'
p193
sI780
S'                value, error = field.validate(value)'
p194
sI781
S'            if error:'
p195
sI782
S'                response.errors[field.name] = "%s" % error'
p196
sI783
S'            elif field.name in fields:'
p197
sI784
S'                # only write if the field was passed and no error'
p198
ssg89
S"(self=<Table shotsTable (id, name, modified, framesNum, modifier, status, active, description)>, fields={'active': True, 'description': 'who cates', 'framesNum': 65, 'modified': '2019-4-4', 'modifier': 'Ran', 'name': 'shot 08', 'status': 'pis da', 'statusColor': 'kaki'}, defattr='default')"
p199
sg91
S'_validate_fields'
p200
sa(dp201
g68
S'/Users/Ran/PycharmProjects/untitled/web2py/gluon/packages/dal/pydal/objects.py'
p202
sg70
(dp203
S'validator'
p204
S'<pydal.validators.IS_NOT_IN_DB object>'
p205
sS'value'
p206
S"'shot 08'"
p207
sS'error'
p208
g110
ssg76
I1996
sg77
(dp209
I1991
S'        if not requires or requires is DEFAULT:'
p210
sI1992
S'            return ((value if value != self.map_none else None), None)'
p211
sI1993
S'        if not isinstance(requires, (list, tuple)):'
p212
sI1994
S'            requires = [requires]'
p213
sI1995
S'        for validator in requires:'
p214
sI1996
S'            (value, error) = validator(value)'
p215
sI1997
S'            if error:'
p216
sI1998
S'                return (value, error)'
p217
sI1999
S'        return ((value if value != self.map_none else None), None)'
p218
sI2000
S''
ssg89
S"(self=<pydal.objects.Field object>, value='shot 08')"
p219
sg91
S'validate'
p220
sa(dp221
g68
S'/Users/Ran/PycharmProjects/untitled/web2py/gluon/packages/dal/pydal/validators.py'
p222
sg70
(dp223
S'builtinNone'
p224
S'None'
p225
sS'self'
p226
S'<pydal.validators.IS_NOT_IN_DB object>'
p227
sS'self.validate'
p228
S'<bound method IS_NOT_IN_DB.validate of <pydal.validators.IS_NOT_IN_DB object>>'
p229
sS'value'
p230
S"'shot 08'"
p231
ssg76
I145
sg77
(dp232
I140
S'    def validate(value):'
p233
sI141
S'        raise NotImplementedError'
p234
sI142
S''
sI143
S'    def __call__(self, value):'
p235
sI144
S'        try:'
p236
sI145
S'            return self.validate(value), None'
p237
sI146
S'        except ValidationError as e:'
p238
sI147
S'            return value, e.message'
p239
sI148
S''
sI149
S''
ssg89
S"(self=<pydal.validators.IS_NOT_IN_DB object>, value='shot 08')"
p240
sg91
S'__call__'
p241
sa(dp242
g68
S'/Users/Ran/PycharmProjects/untitled/web2py/gluon/packages/dal/pydal/validators.py'
p243
sg70
(dp244
S'subset'
p245
S"<Set (`shotsTable`.`name` = 'shot 08')>"
p246
sS'orderby_on_limitby'
p247
g110
sS'table._id'
p248
S'<pydal.objects.Field object>'
p249
sS'builtinFalse'
p250
S'False'
p251
sS'subset.select'
p252
S"<bound method Set.select of <Set (`shotsTable`.`name` = 'shot 08')>>"
p253
sS'limitby'
p254
g110
sS'field'
p255
S'<pydal.objects.Field object>'
p256
sS'table'
p257
S'<Table shotsTable (id, name, modified, framesNum, modifier, status, active, description)>'
p258
sS').first'
p259
g110
sS'row'
p260
g110
ssg76
I747
sg77
(dp261
I742
S'            fields = [table[f] for f in id]'
p262
sI743
S'            row = subset.select(*fields, **dict(limitby=(0, 1), orderby_on_limitby=False)).first()'
p263
sI744
S'            if row and any(str(row[f]) != str(id[f]) for f in id):'
p264
sI745
S'                raise ValidationError(self.translator(self.error_message))'
p265
sI746
S'        else:'
p266
sI747
S'            row = subset.select(table._id, field, limitby=(0, 1), orderby_on_limitby=False).first()'
p267
sI748
S'            if row and str(row[table._id]) != str(id):'
p268
sI749
S'                raise ValidationError(self.translator(self.error_message))'
p269
sI750
S'        return value'
p270
sI751
S''
ssg89
S"(self=<pydal.validators.IS_NOT_IN_DB object>, value='shot 08')"
p271
sg91
g220
sa(dp272
g68
S'/Users/Ran/PycharmProjects/untitled/web2py/gluon/packages/dal/pydal/objects.py'
p273
sg70
(dp274
S'self.query'
p275
S"<Query (`shotsTable`.`name` = 'shot 08')>"
p276
sS'adapter.select'
p277
S'<bound method MySQL.select of <pydal.adapters.mysql.MySQL object>>'
p278
sS'fields'
p279
S'[<pydal.objects.Field object>, <pydal.objects.Field object>]'
p280
sS'adapter'
p281
S'<pydal.adapters.mysql.MySQL object>'
p282
sS'attributes'
p283
S"{'limitby': (0, 1), 'orderby_on_limitby': False}"
p284
sS'self'
p285
S"<Set (`shotsTable`.`name` = 'shot 08')>"
p286
ssg76
I2395
sg77
(dp287
I2390
S"                                    attributes.get('join', None),"
p288
sI2391
S"                                    attributes.get('left', None),"
p289
sI2392
S"                                    attributes.get('orderby', None),"
p290
sI2393
S"                                    attributes.get('groupby', None))"
p291
sI2394
S'        fields = adapter.expand_all(fields, tablenames)'
p292
sI2395
S'        return adapter.select(self.query, fields, attributes)'
p293
sI2396
S''
sI2397
S'    def iterselect(self, *fields, **attributes):'
p294
sI2398
S'        adapter = self.db._adapter'
p295
sI2399
S'        tablenames = adapter.tables(self.query,'
p296
ssg89
S"(self=<Set (`shotsTable`.`name` = 'shot 08')>, *fields=[<pydal.objects.Field object>, <pydal.objects.Field object>], **attributes={'limitby': (0, 1), 'orderby_on_limitby': False})"
p297
sg91
S'select'
p298
sa(dp299
g68
S'/Users/Ran/PycharmProjects/untitled/web2py/gluon/packages/dal/pydal/adapters/base.py'
p300
sg70
(dp301
S'self._select_aux'
p302
S'<bound method MySQL._select_aux of <pydal.adapters.mysql.MySQL object>>'
p303
sS'fields'
p304
S'[<pydal.objects.Field object>, <pydal.objects.Field object>]'
p305
sS'self'
p306
S'<pydal.adapters.mysql.MySQL object>'
p307
sS'sql'
p308
S'"SELECT `shotsTable`.`id`, `shotsTable`.`name` FR...shotsTable`.`name` = \'shot 08\') LIMIT 1 OFFSET 0;"'
p309
sS'attributes'
p310
S"{'limitby': (0, 1), 'orderby_on_limitby': False}"
p311
sS'colnames'
p312
S"['shotsTable.id', 'shotsTable.name']"
p313
ssg76
I763
sg77
(dp314
I758
S'        colnames, sql = self._select_wcols(query, fields, **attributes)'
p315
sI759
S"        cache = attributes.get('cache', None)"
p316
sI760
S"        if cache and attributes.get('cacheable', False):"
p317
sI761
S'            return self._cached_select('
p318
sI762
S'                cache, sql, fields, attributes, colnames)'
p319
sI763
S'        return self._select_aux(sql, fields, attributes, colnames)'
p320
sI764
S''
sI765
S'    def iterselect(self, query, fields, attributes):'
p321
sI766
S'        colnames, sql = self._select_wcols(query, fields, **attributes)'
p322
sI767
S"        cacheable = attributes.get('cacheable', False)"
p323
ssg89
S"(self=<pydal.adapters.mysql.MySQL object>, query=<Query (`shotsTable`.`name` = 'shot 08')>, fields=[<pydal.objects.Field object>, <pydal.objects.Field object>], attributes={'limitby': (0, 1), 'orderby_on_limitby': False})"
p324
sg91
g298
sa(dp325
g68
S'/Users/Ran/PycharmProjects/untitled/web2py/gluon/packages/dal/pydal/adapters/base.py'
p326
sg70
(dp327
S'self'
p328
S'<pydal.adapters.mysql.MySQL object>'
p329
sS'rows'
p330
g110
sS'self._select_aux_execute'
p331
S'<bound method MySQL._select_aux_execute of <pydal.adapters.mysql.MySQL object>>'
p332
sS'sql'
p333
S'"SELECT `shotsTable`.`id`, `shotsTable`.`name` FR...shotsTable`.`name` = \'shot 08\') LIMIT 1 OFFSET 0;"'
p334
ssg76
I719
sg77
(dp335
I714
S'        return self.cursor.fetchall()'
p336
sI715
S''
sI716
S'    def _select_aux(self, sql, fields, attributes, colnames):'
p337
sI717
S"        cache = attributes.get('cache', None)"
p338
sI718
S'        if not cache:'
p339
sI719
S'            rows = self._select_aux_execute(sql)'
p340
sI720
S'        else:'
p341
sI721
S'            if isinstance(cache, dict):'
p342
sI722
S"                cache_model = cache['model']"
p343
sI723
S"                time_expire = cache['expiration']"
p344
ssg89
S'(self=<pydal.adapters.mysql.MySQL object>, sql="SELECT `shotsTable`.`id`, `shotsTable`.`name` FR...shotsTable`.`name` = \'shot 08\') LIMIT 1 OFFSET 0;", fields=[<pydal.objects.Field object>, <pydal.objects.Field object>], attributes={\'limitby\': (0, 1), \'orderby_on_limitby\': False}, colnames=[\'shotsTable.id\', \'shotsTable.name\'])'
p345
sg91
S'_select_aux'
p346
sa(dp347
g68
S'/Users/Ran/PycharmProjects/untitled/web2py/gluon/packages/dal/pydal/adapters/base.py'
p348
sg70
(dp349
S'self'
p350
S'<pydal.adapters.mysql.MySQL object>'
p351
sS'self.execute'
p352
S'<bound method MySQL.wrap of <pydal.adapters.mysql.MySQL object>>'
p353
sS'sql'
p354
S'"SELECT `shotsTable`.`id`, `shotsTable`.`name` FR...shotsTable`.`name` = \'shot 08\') LIMIT 1 OFFSET 0;"'
p355
ssg76
I713
sg77
(dp356
I708
S''
sI709
S'    def nested_select(self, query, fields, attributes):'
p357
sI710
S'        return Select(self.db, query, fields, attributes)'
p358
sI711
S''
sI712
S'    def _select_aux_execute(self, sql):'
p359
sI713
S'        self.execute(sql)'
p360
sI714
S'        return self.cursor.fetchall()'
p361
sI715
S''
sI716
S'    def _select_aux(self, sql, fields, attributes, colnames):'
p362
sI717
S"        cache = attributes.get('cache', None)"
p363
ssg89
S'(self=<pydal.adapters.mysql.MySQL object>, sql="SELECT `shotsTable`.`id`, `shotsTable`.`name` FR...shotsTable`.`name` = \'shot 08\') LIMIT 1 OFFSET 0;")'
p364
sg91
S'_select_aux_execute'
p365
sa(dp366
g68
S'/Users/Ran/PycharmProjects/untitled/web2py/gluon/packages/dal/pydal/adapters/__init__.py'
p367
sg70
(dp368
S'kwargs'
p369
g21
sS'args'
p370
S'(<pydal.adapters.mysql.MySQL object>, "SELECT `shotsTable`.`id`, `shotsTable`.`name` FR...shotsTable`.`name` = \'shot 08\') LIMIT 1 OFFSET 0;")'
p371
sS'f'
S'<function execute>'
p372
ssg76
I67
sg77
(dp373
I64
S'            if len(args) > 1:'
p374
sI65
S'                raise ValueError(args[1])'
p375
sI66
S"            raise RuntimeError('no connection available')"
p376
sI67
S'        return f(*args, **kwargs)'
p377
sI68
S'    return wrap'
p378
sI69
S''
sI70
S''
sI71
S'from .base import SQLAdapter, NoSQLAdapter'
p379
sI62
S'    def wrap(*args, **kwargs):'
p380
sI63
S'        if not args[0].connection:'
p381
ssg89
S'(*args=(<pydal.adapters.mysql.MySQL object>, "SELECT `shotsTable`.`id`, `shotsTable`.`name` FR...shotsTable`.`name` = \'shot 08\') LIMIT 1 OFFSET 0;"), **kwargs={})'
p382
sg91
S'wrap'
p383
sa(dp384
g68
S'/Users/Ran/PycharmProjects/untitled/web2py/gluon/packages/dal/pydal/adapters/base.py'
p385
sg70
(dp386
S'rv'
p387
g110
sS'self'
p388
S'<pydal.adapters.mysql.MySQL object>'
p389
sS'args'
p390
S'("SELECT `shotsTable`.`id`, `shotsTable`.`name` FR...shotsTable`.`name` = \'shot 08\') LIMIT 1 OFFSET 0;",)'
p391
sS'self.cursor'
p392
S'<gluon.contrib.pymysql.cursors.Cursor object>'
p393
sS'command'
p394
S'"SELECT `shotsTable`.`id`, `shotsTable`.`name` FR...shotsTable`.`name` = \'shot 08\') LIMIT 1 OFFSET 0;"'
p395
sS'self.cursor.execute'
p396
S'<bound method Cursor.execute of <gluon.contrib.pymysql.cursors.Cursor object>>'
p397
sS'kwargs'
p398
g21
ssg76
I413
sg77
(dp399
I416
S'        return rv'
p400
sI417
S''
sI408
S'    def execute(self, *args, **kwargs):'
p401
sI409
S'        command = self.filter_sql_command(args[0])'
p402
sI410
S'        handlers = self._build_handlers_for_execution()'
p403
sI411
S'        for handler in handlers:'
p404
sI412
S'            handler.before_execute(command)'
p405
sI413
S'        rv = self.cursor.execute(command, *args[1:], **kwargs)'
p406
sI414
S'        for handler in handlers:'
p407
sI415
S'            handler.after_execute(command)'
p408
ssg89
S'(self=<pydal.adapters.mysql.MySQL object>, *args=("SELECT `shotsTable`.`id`, `shotsTable`.`name` FR...shotsTable`.`name` = \'shot 08\') LIMIT 1 OFFSET 0;",), **kwargs={})'
p409
sg91
S'execute'
p410
sa(dp411
g68
S'/Users/Ran/PycharmProjects/untitled/web2py/gluon/contrib/pymysql/cursors.py'
p412
sg70
(dp413
S'query'
p414
S'"SELECT `shotsTable`.`id`, `shotsTable`.`name` FR...shotsTable`.`name` = \'shot 08\') LIMIT 1 OFFSET 0;"'
p415
sS'self'
p416
S'<gluon.contrib.pymysql.cursors.Cursor object>'
p417
sS'result'
p418
g110
sS'self._query'
p419
S'<bound method Cursor._query of <gluon.contrib.pymysql.cursors.Cursor object>>'
p420
ssg76
I166
sg77
(dp421
I161
S'        while self.nextset():'
p422
sI162
S'            pass'
p423
sI163
S''
sI164
S'        query = self.mogrify(query, args)'
p424
sI165
S''
sI166
S'        result = self._query(query)'
p425
sI167
S'        self._executed = query'
p426
sI168
S'        return result'
p427
sI169
S''
sI170
S'    def executemany(self, query, args):'
p428
ssg89
S'(self=<gluon.contrib.pymysql.cursors.Cursor object>, query="SELECT `shotsTable`.`id`, `shotsTable`.`name` FR...shotsTable`.`name` = \'shot 08\') LIMIT 1 OFFSET 0;", args=None)'
p429
sg91
g410
sa(dp430
g68
S'/Users/Ran/PycharmProjects/untitled/web2py/gluon/contrib/pymysql/cursors.py'
p431
sg70
(dp432
S'q'
S'"SELECT `shotsTable`.`id`, `shotsTable`.`name` FR...shotsTable`.`name` = \'shot 08\') LIMIT 1 OFFSET 0;"'
p433
sS'conn.query'
p434
S'<bound method Connection.query of <gluon.contrib.pymysql.connections.Connection object>>'
p435
sS'conn'
p436
S'<gluon.contrib.pymysql.connections.Connection object>'
p437
ssg76
I322
sg77
(dp438
I320
S'        conn = self._get_db()'
p439
sI321
S'        self._last_executed = q'
p440
sI322
S'        conn.query(q)'
p441
sI323
S'        self._do_get_result()'
p442
sI324
S'        return self.rowcount'
p443
sI325
S''
sI326
S'    def _do_get_result(self):'
p444
sI317
S'        self.rownumber = r'
p445
sI318
S''
sI319
S'    def _query(self, q):'
p446
ssg89
S'(self=<gluon.contrib.pymysql.cursors.Cursor object>, q="SELECT `shotsTable`.`id`, `shotsTable`.`name` FR...shotsTable`.`name` = \'shot 08\') LIMIT 1 OFFSET 0;")'
p447
sg91
S'_query'
p448
sa(dp449
g68
S'/Users/Ran/PycharmProjects/untitled/web2py/gluon/contrib/pymysql/connections.py'
p450
sg70
(dp451
S'self._read_query_result'
p452
S'<bound method Connection._read_query_result of <...n.contrib.pymysql.connections.Connection object>>'
p453
sS'self'
p454
S'<gluon.contrib.pymysql.connections.Connection object>'
p455
sS'unbuffered'
p456
g251
sS'self._affected_rows'
p457
S'0'
ssg76
I835
sg77
(dp458
I832
S'            else:'
p459
sI833
S"                sql = sql.encode(self.encoding, 'surrogateescape')"
p460
sI834
S'        self._execute_command(COMMAND.COM_QUERY, sql)'
p461
sI835
S'        self._affected_rows = self._read_query_result(unbuffered=unbuffered)'
p462
sI836
S'        return self._affected_rows'
p463
sI837
S''
sI838
S'    def next_result(self, unbuffered=False):'
p464
sI839
S'        self._affected_rows = self._read_query_result(unbuffered=unbuffered)'
p465
sI830
S'            if PY2:'
p466
sI831
S'                sql = sql.encode(self.encoding)'
p467
ssg89
S'(self=<gluon.contrib.pymysql.connections.Connection object>, sql="SELECT `shotsTable`.`id`, `shotsTable`.`name` FR...shotsTable`.`name` = \'shot 08\') LIMIT 1 OFFSET 0;", unbuffered=False)'
p468
sg91
S'query'
p469
sa(dp470
g68
S'/Users/Ran/PycharmProjects/untitled/web2py/gluon/contrib/pymysql/connections.py'
p471
sg70
(dp472
S'result.read'
p473
S'<bound method MySQLResult.read of <gluon.contrib.pymysql.connections.MySQLResult object>>'
p474
sS'result'
p475
S'<gluon.contrib.pymysql.connections.MySQLResult object>'
p476
ssg76
I1019
sg77
(dp477
I1014
S'                result.unbuffered_active = False'
p478
sI1015
S'                result.connection = None'
p479
sI1016
S'                raise'
p480
sI1017
S'        else:'
p481
sI1018
S'            result = MySQLResult(self)'
p482
sI1019
S'            result.read()'
p483
sI1020
S'        self._result = result'
p484
sI1021
S'        if result.server_status is not None:'
p485
sI1022
S'            self.server_status = result.server_status'
p486
sI1023
S'        return result.affected_rows'
p487
ssg89
S'(self=<gluon.contrib.pymysql.connections.Connection object>, unbuffered=False)'
p488
sg91
S'_read_query_result'
p489
sa(dp490
g68
S'/Users/Ran/PycharmProjects/untitled/web2py/gluon/contrib/pymysql/connections.py'
p491
sg70
(dp492
S'first_packet'
p493
g110
sS'self'
p494
S'<gluon.contrib.pymysql.connections.MySQLResult object>'
p495
sS'self.connection'
p496
S'None'
p497
sS'self.connection._read_packet'
p498
g110
ssg76
I1302
sg77
(dp499
I1297
S'        if self.unbuffered_active:'
p500
sI1298
S'            self._finish_unbuffered_query()'
p501
sI1299
S''
sI1300
S'    def read(self):'
p502
sI1301
S'        try:'
p503
sI1302
S'            first_packet = self.connection._read_packet()'
p504
sI1303
S''
sI1304
S'            if first_packet.is_ok_packet():'
p505
sI1305
S'                self._read_ok_packet(first_packet)'
p506
sI1306
S'            elif first_packet.is_load_local_packet():'
p507
ssg89
S'(self=<gluon.contrib.pymysql.connections.MySQLResult object>)'
p508
sg91
S'read'
p509
sa(dp510
g68
S'/Users/Ran/PycharmProjects/untitled/web2py/gluon/contrib/pymysql/connections.py'
p511
sg70
(dp512
S'packet'
p513
S'<gluon.contrib.pymysql.connections.MysqlPacket object>'
p514
sS'packet.check_error'
p515
S'<bound method MysqlPacket.check_error of <gluon.contrib.pymysql.connections.MysqlPacket object>>'
p516
ssg76
I981
sg77
(dp517
I976
S'                continue'
p518
sI977
S'            if bytes_to_read < MAX_PACKET_LEN:'
p519
sI978
S'                break'
p520
sI979
S''
sI980
S'        packet = packet_type(buff, self.encoding)'
p521
sI981
S'        packet.check_error()'
p522
sI982
S'        return packet'
p523
sI983
S''
sI984
S'    def _read_bytes(self, num_bytes):'
p524
sI985
S'        self._sock.settimeout(self._read_timeout)'
p525
ssg89
S"(self=<gluon.contrib.pymysql.connections.Connection object>, packet_type=<class 'gluon.contrib.pymysql.connections.MysqlPacket'>)"
p526
sg91
S'_read_packet'
p527
sa(dp528
g68
S'/Users/Ran/PycharmProjects/untitled/web2py/gluon/contrib/pymysql/connections.py'
p529
sg70
(dp530
S'self._data'
p531
S'"\\xffz\\x04#42S02Table \'binjo6x0bhaoabnu.shotstable\' doesn\'t exist"'
p532
sS'self'
p533
S'<gluon.contrib.pymysql.connections.MysqlPacket object>'
p534
sS'global err'
p535
S"<module 'gluon.contrib.pymysql.err' from '/Users...s/untitled/web2py/gluon/contrib/pymysql/err.pyc'>"
p536
sS'err.raise_mysql_exception'
p537
S'<function raise_mysql_exception>'
p538
ssg76
I393
sg77
(dp539
I388
S'        if self.is_error_packet():'
p540
sI389
S'            self.rewind()'
p541
sI390
S'            self.advance(1)  # field_count == error (we already know that)'
p542
sI391
S'            errno = self.read_uint16()'
p543
sI392
S'            if DEBUG: print("errno =", errno)'
p544
sI393
S'            err.raise_mysql_exception(self._data)'
p545
sI394
S''
sI395
S'    def dump(self):'
p546
sI396
S'        dump_packet(self._data)'
p547
sI397
S''
ssg89
S'(self=<gluon.contrib.pymysql.connections.MysqlPacket object>)'
p548
sg91
S'check_error'
p549
sa(dp550
g68
S'/Users/Ran/PycharmProjects/untitled/web2py/gluon/contrib/pymysql/err.py'
p551
sg70
(dp552
S'errorclass'
p553
S"<class 'gluon.contrib.pymysql.err.ProgrammingError'>"
p554
sS'errno'
p555
S'1146'
p556
sS'errval'
p557
S'u"Table \'binjo6x0bhaoabnu.shotstable\' doesn\'t exist"'
p558
ssg76
I107
sg77
(dp559
I98
S'def raise_mysql_exception(data):'
p560
sI99
S"    errno = struct.unpack('<h', data[1:3])[0]"
p561
sI100
S'    is_41 = data[3:4] == b"#"'
p562
sI101
S'    if is_41:'
p563
sI102
S'        # client protocol 4.1'
p564
sI103
S"        errval = data[9:].decode('utf-8', 'replace')"
p565
sI104
S'    else:'
p566
sI105
S"        errval = data[3:].decode('utf-8', 'replace')"
p567
sI106
S'    errorclass = error_map.get(errno, InternalError)'
p568
sI107
S'    raise errorclass(errno, errval)'
p569
ssg89
S'(data="\\xffz\\x04#42S02Table \'binjo6x0bhaoabnu.shotstable\' doesn\'t exist")'
p570
sg91
S'raise_mysql_exception'
p571
sasS'pyver'
p572
S'Python 2.7.8: /usr/local/opt/python/bin/python2.7 (prefix: /usr/local/Cellar/python/2.7.8_2/Frameworks/Python.framework/Versions/2.7)'
p573
sS'session'
p574
g63
(S's\x1a\x00\x00\x00<div><table></table></div>'
tRp575
sS'etype'
p576
S"<class 'gluon.contrib.pymysql.err.ProgrammingError'>"
p577
sS'date'
p578
S'Thu Aug 22 03:43:56 2019'
p579
sS'response'
p580
g63
(S's\xe6<\x00\x00<div><table><tr><td style="font-weight:bold;vertical-align:top;">body</td><td style="vertical-align:top;">:</td><td><div>&lt;cStringIO.StringO object at 0x10c5f77a0&gt;</div></td></tr><tr><td style="font-weight:bold;vertical-align:top;">cookies</td><td style="vertical-align:top;">:</td><td><div><table><tr><td style="font-weight:bold;vertical-align:top;">session_id_shotsapp</td><td style="vertical-align:top;">:</td><td><div>127.0.0.1-3bf83457-4e07-4072-8870-6c7977607e54<table><tr><td style="font-weight:bold;vertical-align:top;">comment</td><td style="vertical-align:top;">:</td><td><div></div></td></tr><tr><td style="font-weight:bold;vertical-align:top;">domain</td><td style="vertical-align:top;">:</td><td><div></div></td></tr><tr><td style="font-weight:bold;vertical-align:top;">expires</td><td style="vertical-align:top;">:</td><td><div></div></td></tr><tr><td style="font-weight:bold;vertical-align:top;">httponly</td><td style="vertical-align:top;">:</td><td><div></div></td></tr><tr><td style="font-weight:bold;vertical-align:top;">max-age</td><td style="vertical-align:top;">:</td><td><div></div></td></tr><tr><td style="font-weight:bold;vertical-align:top;">path</td><td style="vertical-align:top;">:</td><td><div>/</div></td></tr><tr><td style="font-weight:bold;vertical-align:top;">samesite</td><td style="vertical-align:top;">:</td><td><div></div></td></tr><tr><td style="font-weight:bold;vertical-align:top;">secure</td><td style="vertical-align:top;">:</td><td><div></div></td></tr><tr><td style="font-weight:bold;vertical-align:top;">version</td><td style="vertical-align:top;">:</td><td><div></div></td></tr></table></div></td></tr></table></div></td></tr><tr><td style="font-weight:bold;vertical-align:top;">delimiters</td><td style="vertical-align:top;">:</td><td><div><table><tr><td><div>{{</div></td></tr><tr><td><div>}}</div></td></tr></table></div></td></tr><tr><td style="font-weight:bold;vertical-align:top;">files</td><td style="vertical-align:top;">:</td><td><div><table></table></div></td></tr><tr><td style="font-weight:bold;vertical-align:top;">flash</td><td style="vertical-align:top;">:</td><td><div></div></td></tr><tr><td style="font-weight:bold;vertical-align:top;">form_label_separator</td><td style="vertical-align:top;">:</td><td><div></div></td></tr><tr><td style="font-weight:bold;vertical-align:top;">formstyle</td><td style="vertical-align:top;">:</td><td><div>bootstrap4_inline</div></td></tr><tr><td style="font-weight:bold;vertical-align:top;">generic_patterns</td><td style="vertical-align:top;">:</td><td><div><table><tr><td><div>*</div></td></tr></table></div></td></tr><tr><td style="font-weight:bold;vertical-align:top;">google_analytics_id</td><td style="vertical-align:top;">:</td><td><div>None</div></td></tr><tr><td style="font-weight:bold;vertical-align:top;">headers</td><td style="vertical-align:top;">:</td><td><div><table><tr><td style="font-weight:bold;vertical-align:top;">X-Powered-By</td><td style="vertical-align:top;">:</td><td><div>web2py</div></td></tr></table></div></td></tr><tr><td style="font-weight:bold;vertical-align:top;">menu</td><td style="vertical-align:top;">:</td><td><div><table><tr><td><div><table><tr><td><div>Home</div></td></tr><tr><td><div>False</div></td></tr><tr><td><div>/shotsapp/default/index</div></td></tr><tr><td><div><table></table></div></td></tr></table></div></td></tr><tr><td><div><table><tr><td><div>My Sites</div></td></tr><tr><td><div>False</div></td></tr><tr><td><div>/admin/default/site</div></td></tr></table></div></td></tr><tr><td><div><table><tr><td><div>This App</div></td></tr><tr><td><div>False</div></td></tr><tr><td><div>#</div></td></tr><tr><td><div><table><tr><td><div><table><tr><td><div>Design</div></td></tr><tr><td><div>False</div></td></tr><tr><td><div>/admin/default/design/shotsapp</div></td></tr></table></div></td></tr><tr><td><div><table><tr><td><div>Controller</div></td></tr><tr><td><div>False</div></td></tr><tr><td><div>/admin/default/edit/shotsapp/controllers/shots.py</div></td></tr></table></div></td></tr><tr><td><div><table><tr><td><div>View</div></td></tr><tr><td><div>False</div></td></tr><tr><td><div>/admin/default/edit/shotsapp/views/shots/status.html</div></td></tr></table></div></td></tr><tr><td><div><table><tr><td><div>DB Model</div></td></tr><tr><td><div>False</div></td></tr><tr><td><div>/admin/default/edit/shotsapp/models/db.py</div></td></tr></table></div></td></tr><tr><td><div><table><tr><td><div>Menu Model</div></td></tr><tr><td><div>False</div></td></tr><tr><td><div>/admin/default/edit/shotsapp/models/menu.py</div></td></tr></table></div></td></tr><tr><td><div><table><tr><td><div>Config.ini</div></td></tr><tr><td><div>False</div></td></tr><tr><td><div>/admin/default/edit/shotsapp/private/appconfig.ini</div></td></tr></table></div></td></tr><tr><td><div><table><tr><td><div>Layout</div></td></tr><tr><td><div>False</div></td></tr><tr><td><div>/admin/default/edit/shotsapp/views/layout.html</div></td></tr></table></div></td></tr><tr><td><div><table><tr><td><div>Stylesheet</div></td></tr><tr><td><div>False</div></td></tr><tr><td><div>/admin/default/edit/shotsapp/static/css/web2py-bootstrap3.css</div></td></tr></table></div></td></tr><tr><td><div><table><tr><td><div>Database</div></td></tr><tr><td><div>False</div></td></tr><tr><td><div>/shotsapp/appadmin/index</div></td></tr></table></div></td></tr><tr><td><div><table><tr><td><div>Errors</div></td></tr><tr><td><div>False</div></td></tr><tr><td><div>/admin/default/errors/shotsapp</div></td></tr></table></div></td></tr><tr><td><div><table><tr><td><div>About</div></td></tr><tr><td><div>False</div></td></tr><tr><td><div>/admin/default/about/shotsapp</div></td></tr></table></div></td></tr></table></div></td></tr></table></div></td></tr><tr><td><div><table><tr><td><div>web2py.com</div></td></tr><tr><td><div>False</div></td></tr><tr><td><div>#</div></td></tr><tr><td><div><table><tr><td><div><table><tr><td><div>Download</div></td></tr><tr><td><div>False</div></td></tr><tr><td><div>http://www.web2py.com/examples/default/download</div></td></tr></table></div></td></tr><tr><td><div><table><tr><td><div>Support</div></td></tr><tr><td><div>False</div></td></tr><tr><td><div>http://www.web2py.com/examples/default/support</div></td></tr></table></div></td></tr><tr><td><div><table><tr><td><div>Demo</div></td></tr><tr><td><div>False</div></td></tr><tr><td><div>http://web2py.com/demo_admin</div></td></tr></table></div></td></tr><tr><td><div><table><tr><td><div>Quick Examples</div></td></tr><tr><td><div>False</div></td></tr><tr><td><div>http://web2py.com/examples/default/examples</div></td></tr></table></div></td></tr><tr><td><div><table><tr><td><div>FAQ</div></td></tr><tr><td><div>False</div></td></tr><tr><td><div>http://web2py.com/AlterEgo</div></td></tr></table></div></td></tr><tr><td><div><table><tr><td><div>Videos</div></td></tr><tr><td><div>False</div></td></tr><tr><td><div>http://www.web2py.com/examples/default/videos/</div></td></tr></table></div></td></tr><tr><td><div><table><tr><td><div>Free Applications</div></td></tr><tr><td><div>False</div></td></tr><tr><td><div>http://web2py.com/appliances</div></td></tr></table></div></td></tr><tr><td><div><table><tr><td><div>Plugins</div></td></tr><tr><td><div>False</div></td></tr><tr><td><div>http://web2py.com/plugins</div></td></tr></table></div></td></tr><tr><td><div><table><tr><td><div>Recipes</div></td></tr><tr><td><div>False</div></td></tr><tr><td><div>http://web2pyslices.com/</div></td></tr></table></div></td></tr></table></div></td></tr></table></div></td></tr><tr><td><div><table><tr><td><div>Documentation</div></td></tr><tr><td><div>False</div></td></tr><tr><td><div>#</div></td></tr><tr><td><div><table><tr><td><div><table><tr><td><div>Online book</div></td></tr><tr><td><div>False</div></td></tr><tr><td><div>http://www.web2py.com/book</div></td></tr></table></div></td></tr><tr><td><div><table><tr><td><div>Preface</div></td></tr><tr><td><div>False</div></td></tr><tr><td><div>http://www.web2py.com/book/default/chapter/00</div></td></tr></table></div></td></tr><tr><td><div><table><tr><td><div>Introduction</div></td></tr><tr><td><div>False</div></td></tr><tr><td><div>http://www.web2py.com/book/default/chapter/01</div></td></tr></table></div></td></tr><tr><td><div><table><tr><td><div>Python</div></td></tr><tr><td><div>False</div></td></tr><tr><td><div>http://www.web2py.com/book/default/chapter/02</div></td></tr></table></div></td></tr><tr><td><div><table><tr><td><div>Overview</div></td></tr><tr><td><div>False</div></td></tr><tr><td><div>http://www.web2py.com/book/default/chapter/03</div></td></tr></table></div></td></tr><tr><td><div><table><tr><td><div>The Core</div></td></tr><tr><td><div>False</div></td></tr><tr><td><div>http://www.web2py.com/book/default/chapter/04</div></td></tr></table></div></td></tr><tr><td><div><table><tr><td><div>The Views</div></td></tr><tr><td><div>False</div></td></tr><tr><td><div>http://www.web2py.com/book/default/chapter/05</div></td></tr></table></div></td></tr><tr><td><div><table><tr><td><div>Database</div></td></tr><tr><td><div>False</div></td></tr><tr><td><div>http://www.web2py.com/book/default/chapter/06</div></td></tr></table></div></td></tr><tr><td><div><table><tr><td><div>Forms and Validators</div></td></tr><tr><td><div>False</div></td></tr><tr><td><div>http://www.web2py.com/book/default/chapter/07</div></td></tr></table></div></td></tr><tr><td><div><table><tr><td><div>Email and SMS</div></td></tr><tr><td><div>False</div></td></tr><tr><td><div>http://www.web2py.com/book/default/chapter/08</div></td></tr></table></div></td></tr><tr><td><div><table><tr><td><div>Access Control</div></td></tr><tr><td><div>False</div></td></tr><tr><td><div>http://www.web2py.com/book/default/chapter/09</div></td></tr></table></div></td></tr><tr><td><div><table><tr><td><div>Services</div></td></tr><tr><td><div>False</div></td></tr><tr><td><div>http://www.web2py.com/book/default/chapter/10</div></td></tr></table></div></td></tr><tr><td><div><table><tr><td><div>Ajax Recipes</div></td></tr><tr><td><div>False</div></td></tr><tr><td><div>http://www.web2py.com/book/default/chapter/11</div></td></tr></table></div></td></tr><tr><td><div><table><tr><td><div>Components and Plugins</div></td></tr><tr><td><div>False</div></td></tr><tr><td><div>http://www.web2py.com/book/default/chapter/12</div></td></tr></table></div></td></tr><tr><td><div><table><tr><td><div>Deployment Recipes</div></td></tr><tr><td><div>False</div></td></tr><tr><td><div>http://www.web2py.com/book/default/chapter/13</div></td></tr></table></div></td></tr><tr><td><div><table><tr><td><div>Other Recipes</div></td></tr><tr><td><div>False</div></td></tr><tr><td><div>http://www.web2py.com/book/default/chapter/14</div></td></tr></table></div></td></tr><tr><td><div><table><tr><td><div>Helping web2py</div></td></tr><tr><td><div>False</div></td></tr><tr><td><div>http://www.web2py.com/book/default/chapter/15</div></td></tr></table></div></td></tr><tr><td><div><table><tr><td><div>Buy web2py\'s book</div></td></tr><tr><td><div>False</div></td></tr><tr><td><div>http://stores.lulu.com/web2py</div></td></tr></table></div></td></tr></table></div></td></tr></table></div></td></tr><tr><td><div><table><tr><td><div>Community</div></td></tr><tr><td><div>False</div></td></tr><tr><td><div>None</div></td></tr><tr><td><div><table><tr><td><div><table><tr><td><div>Groups</div></td></tr><tr><td><div>False</div></td></tr><tr><td><div>http://www.web2py.com/examples/default/usergroups</div></td></tr></table></div></td></tr><tr><td><div><table><tr><td><div>Twitter</div></td></tr><tr><td><div>False</div></td></tr><tr><td><div>http://twitter.com/web2py</div></td></tr></table></div></td></tr><tr><td><div><table><tr><td><div>Live Chat</div></td></tr><tr><td><div>False</div></td></tr><tr><td><div>http://webchat.freenode.net/?channels=web2py</div></td></tr></table></div></td></tr></table></div></td></tr></table></div></td></tr></table></div></td></tr><tr><td style="font-weight:bold;vertical-align:top;">meta</td><td style="vertical-align:top;">:</td><td><div><table><tr><td style="font-weight:bold;vertical-align:top;">author</td><td style="vertical-align:top;">:</td><td><div>Your Name &lt;you@example.com&gt;</div></td></tr><tr><td style="font-weight:bold;vertical-align:top;">description</td><td style="vertical-align:top;">:</td><td><div>a cool new app</div></td></tr><tr><td style="font-weight:bold;vertical-align:top;">generator</td><td style="vertical-align:top;">:</td><td><div>Web2py Web Framework</div></td></tr><tr><td style="font-weight:bold;vertical-align:top;">keywords</td><td style="vertical-align:top;">:</td><td><div><table><tr><td><div>web2py</div></td></tr><tr><td><div>python</div></td></tr><tr><td><div>framework</div></td></tr></table></div></td></tr></table></div></td></tr><tr><td style="font-weight:bold;vertical-align:top;">models_to_run</td><td style="vertical-align:top;">:</td><td><div><table><tr><td><div>^\\w+\\.py$</div></td></tr><tr><td><div>^shots/\\w+\\.py$</div></td></tr><tr><td><div>^shots/status/\\w+\\.py$</div></td></tr></table></div></td></tr><tr><td style="font-weight:bold;vertical-align:top;">postprocessing</td><td style="vertical-align:top;">:</td><td><div><table></table></div></td></tr><tr><td style="font-weight:bold;vertical-align:top;">session_client</td><td style="vertical-align:top;">:</td><td><div>127.0.0.1</div></td></tr><tr><td style="font-weight:bold;vertical-align:top;">session_cookie_compression_level</td><td style="vertical-align:top;">:</td><td><div>None</div></td></tr><tr><td style="font-weight:bold;vertical-align:top;">session_cookie_expires</td><td style="vertical-align:top;">:</td><td><div>None</div></td></tr><tr><td style="font-weight:bold;vertical-align:top;">session_data_name</td><td style="vertical-align:top;">:</td><td><div>session_data_shotsapp</div></td></tr><tr><td style="font-weight:bold;vertical-align:top;">session_file</td><td style="vertical-align:top;">:</td><td><div>None</div></td></tr><tr><td style="font-weight:bold;vertical-align:top;">session_filename</td><td style="vertical-align:top;">:</td><td><div>/Users/Ran/PycharmProjects/untitled/web2py/applications/shotsapp/sessions/127.0.0.1-3bf83457-4e07-4072-8870-6c7977607e54</div></td></tr><tr><td style="font-weight:bold;vertical-align:top;">session_hash</td><td style="vertical-align:top;">:</td><td><div>c0762cbf4baf7f9af97c051e7fcb8083</div></td></tr><tr><td style="font-weight:bold;vertical-align:top;">session_id</td><td style="vertical-align:top;">:</td><td><div>127.0.0.1-3bf83457-4e07-4072-8870-6c7977607e54</div></td></tr><tr><td style="font-weight:bold;vertical-align:top;">session_id_name</td><td style="vertical-align:top;">:</td><td><div>session_id_shotsapp</div></td></tr><tr><td style="font-weight:bold;vertical-align:top;">session_masterapp</td><td style="vertical-align:top;">:</td><td><div>shotsapp</div></td></tr><tr><td style="font-weight:bold;vertical-align:top;">session_new</td><td style="vertical-align:top;">:</td><td><div>True</div></td></tr><tr><td style="font-weight:bold;vertical-align:top;">session_storage_type</td><td style="vertical-align:top;">:</td><td><div>file</div></td></tr><tr><td style="font-weight:bold;vertical-align:top;">show_toolbar</td><td style="vertical-align:top;">:</td><td><div>False</div></td></tr><tr><td style="font-weight:bold;vertical-align:top;">status</td><td style="vertical-align:top;">:</td><td><div>200</div></td></tr><tr><td style="font-weight:bold;vertical-align:top;">view</td><td style="vertical-align:top;">:</td><td><div>shots/status.html</div></td></tr></table></div>'
tRp581
sS'locals'
p582
(dp583
S'errorclass'
p584
S"<class 'gluon.contrib.pymysql.err.ProgrammingError'>"
p585
sS'errno'
p586
S'1146'
p587
sS'is_41'
p588
g132
sS'errval'
p589
S'u"Table \'binjo6x0bhaoabnu.shotstable\' doesn\'t exist"'
p590
sS'data'
p591
S'"\\xffz\\x04#42S02Table \'binjo6x0bhaoabnu.shotstable\' doesn\'t exist"'
p592
sssS'traceback'
p593
S'Traceback (most recent call last):\n  File "/Users/Ran/PycharmProjects/untitled/web2py/gluon/restricted.py", line 219, in restricted\n    exec(ccode, environment)\n  File "/Users/Ran/PycharmProjects/untitled/web2py/applications/shotsapp/controllers/shots.py", line 80, in <module>\n  File "/Users/Ran/PycharmProjects/untitled/web2py/gluon/globals.py", line 421, in <lambda>\n    self._caller = lambda f: f()\n  File "/Users/Ran/PycharmProjects/untitled/web2py/applications/shotsapp/controllers/shots.py", line 29, in status\n    db.shotsTable.validate_and_insert(name=\'shot 08\', modified=\'2019-4-4\', framesNum=65, modifier=\'Ran\', status=\'pis da\', statusColor=\'kaki\', active=True, description=\'who cates\')\n  File "/Users/Ran/PycharmProjects/untitled/web2py/gluon/packages/dal/pydal/objects.py", line 789, in validate_and_insert\n    response, new_fields = self._validate_fields(fields, \'default\')\n  File "/Users/Ran/PycharmProjects/untitled/web2py/gluon/packages/dal/pydal/objects.py", line 780, in _validate_fields\n    value, error = field.validate(value)\n  File "/Users/Ran/PycharmProjects/untitled/web2py/gluon/packages/dal/pydal/objects.py", line 1996, in validate\n    (value, error) = validator(value)\n  File "/Users/Ran/PycharmProjects/untitled/web2py/gluon/packages/dal/pydal/validators.py", line 145, in __call__\n    return self.validate(value), None\n  File "/Users/Ran/PycharmProjects/untitled/web2py/gluon/packages/dal/pydal/validators.py", line 747, in validate\n    row = subset.select(table._id, field, limitby=(0, 1), orderby_on_limitby=False).first()\n  File "/Users/Ran/PycharmProjects/untitled/web2py/gluon/packages/dal/pydal/objects.py", line 2395, in select\n    return adapter.select(self.query, fields, attributes)\n  File "/Users/Ran/PycharmProjects/untitled/web2py/gluon/packages/dal/pydal/adapters/base.py", line 763, in select\n    return self._select_aux(sql, fields, attributes, colnames)\n  File "/Users/Ran/PycharmProjects/untitled/web2py/gluon/packages/dal/pydal/adapters/base.py", line 719, in _select_aux\n    rows = self._select_aux_execute(sql)\n  File "/Users/Ran/PycharmProjects/untitled/web2py/gluon/packages/dal/pydal/adapters/base.py", line 713, in _select_aux_execute\n    self.execute(sql)\n  File "/Users/Ran/PycharmProjects/untitled/web2py/gluon/packages/dal/pydal/adapters/__init__.py", line 67, in wrap\n    return f(*args, **kwargs)\n  File "/Users/Ran/PycharmProjects/untitled/web2py/gluon/packages/dal/pydal/adapters/base.py", line 413, in execute\n    rv = self.cursor.execute(command, *args[1:], **kwargs)\n  File "/Users/Ran/PycharmProjects/untitled/web2py/gluon/contrib/pymysql/cursors.py", line 166, in execute\n    result = self._query(query)\n  File "/Users/Ran/PycharmProjects/untitled/web2py/gluon/contrib/pymysql/cursors.py", line 322, in _query\n    conn.query(q)\n  File "/Users/Ran/PycharmProjects/untitled/web2py/gluon/contrib/pymysql/connections.py", line 835, in query\n    self._affected_rows = self._read_query_result(unbuffered=unbuffered)\n  File "/Users/Ran/PycharmProjects/untitled/web2py/gluon/contrib/pymysql/connections.py", line 1019, in _read_query_result\n    result.read()\n  File "/Users/Ran/PycharmProjects/untitled/web2py/gluon/contrib/pymysql/connections.py", line 1302, in read\n    first_packet = self.connection._read_packet()\n  File "/Users/Ran/PycharmProjects/untitled/web2py/gluon/contrib/pymysql/connections.py", line 981, in _read_packet\n    packet.check_error()\n  File "/Users/Ran/PycharmProjects/untitled/web2py/gluon/contrib/pymysql/connections.py", line 393, in check_error\n    err.raise_mysql_exception(self._data)\n  File "/Users/Ran/PycharmProjects/untitled/web2py/gluon/contrib/pymysql/err.py", line 107, in raise_mysql_exception\n    raise errorclass(errno, errval)\nProgrammingError: (1146, u"Table \'binjo6x0bhaoabnu.shotstable\' doesn\'t exist")\n'
p594
s.